
WildlifeSource.elf:     file format elf32-littlearm

Sections:
Idx Name          Size      VMA       LMA       File off  Algn
  0 .intvec       000000c0  10040000  10040000  00001000  2**0
                  CONTENTS, ALLOC, LOAD, READONLY, DATA
  1 .text         00003d10  100400c0  100400c0  000010c0  2**2
                  CONTENTS, ALLOC, LOAD, READONLY, CODE
  2 .init         00000004  10043dd0  10043dd0  00004dd0  2**2
                  CONTENTS, ALLOC, LOAD, READONLY, CODE
  3 .fini         00000004  10043dd4  10043dd4  00004dd4  2**2
                  CONTENTS, ALLOC, LOAD, READONLY, CODE
  4 .rodata       00000154  10043dd8  10043dd8  00004dd8  2**2
                  CONTENTS, ALLOC, LOAD, READONLY, DATA
  5 .ARM          00000008  10043f2c  10043f2c  00004f2c  2**2
                  CONTENTS, ALLOC, LOAD, READONLY, DATA
  6 .data         00000074  200009e8  10043f34  000059e8  2**2
                  CONTENTS, ALLOC, LOAD, DATA
  7 .ram_preamble 0000002c  20000004  20000004  00006004  2**2
                  ALLOC
  8 .bss.blueRAM  000000d4  200000c0  200000c0  00006004  2**0
                  ALLOC
  9 .bss          00000854  20000194  20000194  00006004  2**2
                  ALLOC
 10 .noinit       00000000  20000a5c  10043fa8  00000000  2**0
                  ALLOC
 11 .ota_region_end 00000000  10043fa8  10043fa8  00005a5c  2**0
                  CONTENTS
 12 .heap         00000000  20000a5c  20000a5c  00005a5c  2**0
                  CONTENTS
 13 .stack        00000c00  20005400  20005400  00006400  2**0
                  ALLOC
 14 .rom_info     00000000  10000000  10000000  00005a5c  2**0
                  CONTENTS
 15 .ARM.attributes 00000028  00000000  00000000  00005a5c  2**0
                  CONTENTS, READONLY
 16 .comment      00000043  00000000  00000000  00005a84  2**0
                  CONTENTS, READONLY
 17 .debug_frame  000005cc  00000000  00000000  00005ac8  2**2
                  CONTENTS, READONLY, DEBUGGING, OCTETS

Disassembly of section .text:

100400c0 <blue_unit_conversion>:
100400c0:	b510      	push	{r4, lr}
100400c2:	4290      	cmp	r0, r2
100400c4:	d916      	bls.n	100400f4 <mul32>
100400c6:	b28a      	uxth	r2, r1
100400c8:	0c03      	lsrs	r3, r0, #16
100400ca:	0c09      	lsrs	r1, r1, #16
100400cc:	460c      	mov	r4, r1
100400ce:	4359      	muls	r1, r3
100400d0:	b280      	uxth	r0, r0
100400d2:	4353      	muls	r3, r2
100400d4:	4344      	muls	r4, r0
100400d6:	4350      	muls	r0, r2
100400d8:	191b      	adds	r3, r3, r4
100400da:	041a      	lsls	r2, r3, #16
100400dc:	0c1b      	lsrs	r3, r3, #16
100400de:	1810      	adds	r0, r2, r0
100400e0:	4159      	adcs	r1, r3
100400e2:	2280      	movs	r2, #128	@ 0x80
100400e4:	0352      	lsls	r2, r2, #13
100400e6:	2300      	movs	r3, #0
100400e8:	1812      	adds	r2, r2, r0
100400ea:	414b      	adcs	r3, r1
100400ec:	0d52      	lsrs	r2, r2, #21
100400ee:	02d8      	lsls	r0, r3, #11
100400f0:	4310      	orrs	r0, r2
100400f2:	bd10      	pop	{r4, pc}

100400f4 <mul32>:
100400f4:	4348      	muls	r0, r1
100400f6:	2280      	movs	r2, #128	@ 0x80
100400f8:	0352      	lsls	r2, r2, #13
100400fa:	1812      	adds	r2, r2, r0
100400fc:	0d52      	lsrs	r2, r2, #21
100400fe:	4610      	mov	r0, r2
10040100:	bd10      	pop	{r4, pc}
10040102:	46c0      	nop			@ (mov r8, r8)

10040104 <strlen>:
10040104:	2300      	movs	r3, #0
10040106:	5cc2      	ldrb	r2, [r0, r3]
10040108:	3301      	adds	r3, #1
1004010a:	2a00      	cmp	r2, #0
1004010c:	d1fb      	bne.n	10040106 <strlen+0x2>
1004010e:	1e58      	subs	r0, r3, #1
10040110:	4770      	bx	lr
	...

10040114 <__gnu_thumb1_case_uqi>:
10040114:	b402      	push	{r1}
10040116:	4671      	mov	r1, lr
10040118:	0849      	lsrs	r1, r1, #1
1004011a:	0049      	lsls	r1, r1, #1
1004011c:	5c09      	ldrb	r1, [r1, r0]
1004011e:	0049      	lsls	r1, r1, #1
10040120:	448e      	add	lr, r1
10040122:	bc02      	pop	{r1}
10040124:	4770      	bx	lr
10040126:	46c0      	nop			@ (mov r8, r8)

10040128 <__gnu_thumb1_case_shi>:
10040128:	b403      	push	{r0, r1}
1004012a:	4671      	mov	r1, lr
1004012c:	0849      	lsrs	r1, r1, #1
1004012e:	0040      	lsls	r0, r0, #1
10040130:	0049      	lsls	r1, r1, #1
10040132:	5e09      	ldrsh	r1, [r1, r0]
10040134:	0049      	lsls	r1, r1, #1
10040136:	448e      	add	lr, r1
10040138:	bc03      	pop	{r0, r1}
1004013a:	4770      	bx	lr

1004013c <__udivsi3>:
1004013c:	2200      	movs	r2, #0
1004013e:	0843      	lsrs	r3, r0, #1
10040140:	428b      	cmp	r3, r1
10040142:	d374      	bcc.n	1004022e <__udivsi3+0xf2>
10040144:	0903      	lsrs	r3, r0, #4
10040146:	428b      	cmp	r3, r1
10040148:	d35f      	bcc.n	1004020a <__udivsi3+0xce>
1004014a:	0a03      	lsrs	r3, r0, #8
1004014c:	428b      	cmp	r3, r1
1004014e:	d344      	bcc.n	100401da <__udivsi3+0x9e>
10040150:	0b03      	lsrs	r3, r0, #12
10040152:	428b      	cmp	r3, r1
10040154:	d328      	bcc.n	100401a8 <__udivsi3+0x6c>
10040156:	0c03      	lsrs	r3, r0, #16
10040158:	428b      	cmp	r3, r1
1004015a:	d30d      	bcc.n	10040178 <__udivsi3+0x3c>
1004015c:	22ff      	movs	r2, #255	@ 0xff
1004015e:	0209      	lsls	r1, r1, #8
10040160:	ba12      	rev	r2, r2
10040162:	0c03      	lsrs	r3, r0, #16
10040164:	428b      	cmp	r3, r1
10040166:	d302      	bcc.n	1004016e <__udivsi3+0x32>
10040168:	1212      	asrs	r2, r2, #8
1004016a:	0209      	lsls	r1, r1, #8
1004016c:	d065      	beq.n	1004023a <__udivsi3+0xfe>
1004016e:	0b03      	lsrs	r3, r0, #12
10040170:	428b      	cmp	r3, r1
10040172:	d319      	bcc.n	100401a8 <__udivsi3+0x6c>
10040174:	e000      	b.n	10040178 <__udivsi3+0x3c>
10040176:	0a09      	lsrs	r1, r1, #8
10040178:	0bc3      	lsrs	r3, r0, #15
1004017a:	428b      	cmp	r3, r1
1004017c:	d301      	bcc.n	10040182 <__udivsi3+0x46>
1004017e:	03cb      	lsls	r3, r1, #15
10040180:	1ac0      	subs	r0, r0, r3
10040182:	4152      	adcs	r2, r2
10040184:	0b83      	lsrs	r3, r0, #14
10040186:	428b      	cmp	r3, r1
10040188:	d301      	bcc.n	1004018e <__udivsi3+0x52>
1004018a:	038b      	lsls	r3, r1, #14
1004018c:	1ac0      	subs	r0, r0, r3
1004018e:	4152      	adcs	r2, r2
10040190:	0b43      	lsrs	r3, r0, #13
10040192:	428b      	cmp	r3, r1
10040194:	d301      	bcc.n	1004019a <__udivsi3+0x5e>
10040196:	034b      	lsls	r3, r1, #13
10040198:	1ac0      	subs	r0, r0, r3
1004019a:	4152      	adcs	r2, r2
1004019c:	0b03      	lsrs	r3, r0, #12
1004019e:	428b      	cmp	r3, r1
100401a0:	d301      	bcc.n	100401a6 <__udivsi3+0x6a>
100401a2:	030b      	lsls	r3, r1, #12
100401a4:	1ac0      	subs	r0, r0, r3
100401a6:	4152      	adcs	r2, r2
100401a8:	0ac3      	lsrs	r3, r0, #11
100401aa:	428b      	cmp	r3, r1
100401ac:	d301      	bcc.n	100401b2 <__udivsi3+0x76>
100401ae:	02cb      	lsls	r3, r1, #11
100401b0:	1ac0      	subs	r0, r0, r3
100401b2:	4152      	adcs	r2, r2
100401b4:	0a83      	lsrs	r3, r0, #10
100401b6:	428b      	cmp	r3, r1
100401b8:	d301      	bcc.n	100401be <__udivsi3+0x82>
100401ba:	028b      	lsls	r3, r1, #10
100401bc:	1ac0      	subs	r0, r0, r3
100401be:	4152      	adcs	r2, r2
100401c0:	0a43      	lsrs	r3, r0, #9
100401c2:	428b      	cmp	r3, r1
100401c4:	d301      	bcc.n	100401ca <__udivsi3+0x8e>
100401c6:	024b      	lsls	r3, r1, #9
100401c8:	1ac0      	subs	r0, r0, r3
100401ca:	4152      	adcs	r2, r2
100401cc:	0a03      	lsrs	r3, r0, #8
100401ce:	428b      	cmp	r3, r1
100401d0:	d301      	bcc.n	100401d6 <__udivsi3+0x9a>
100401d2:	020b      	lsls	r3, r1, #8
100401d4:	1ac0      	subs	r0, r0, r3
100401d6:	4152      	adcs	r2, r2
100401d8:	d2cd      	bcs.n	10040176 <__udivsi3+0x3a>
100401da:	09c3      	lsrs	r3, r0, #7
100401dc:	428b      	cmp	r3, r1
100401de:	d301      	bcc.n	100401e4 <__udivsi3+0xa8>
100401e0:	01cb      	lsls	r3, r1, #7
100401e2:	1ac0      	subs	r0, r0, r3
100401e4:	4152      	adcs	r2, r2
100401e6:	0983      	lsrs	r3, r0, #6
100401e8:	428b      	cmp	r3, r1
100401ea:	d301      	bcc.n	100401f0 <__udivsi3+0xb4>
100401ec:	018b      	lsls	r3, r1, #6
100401ee:	1ac0      	subs	r0, r0, r3
100401f0:	4152      	adcs	r2, r2
100401f2:	0943      	lsrs	r3, r0, #5
100401f4:	428b      	cmp	r3, r1
100401f6:	d301      	bcc.n	100401fc <__udivsi3+0xc0>
100401f8:	014b      	lsls	r3, r1, #5
100401fa:	1ac0      	subs	r0, r0, r3
100401fc:	4152      	adcs	r2, r2
100401fe:	0903      	lsrs	r3, r0, #4
10040200:	428b      	cmp	r3, r1
10040202:	d301      	bcc.n	10040208 <__udivsi3+0xcc>
10040204:	010b      	lsls	r3, r1, #4
10040206:	1ac0      	subs	r0, r0, r3
10040208:	4152      	adcs	r2, r2
1004020a:	08c3      	lsrs	r3, r0, #3
1004020c:	428b      	cmp	r3, r1
1004020e:	d301      	bcc.n	10040214 <__udivsi3+0xd8>
10040210:	00cb      	lsls	r3, r1, #3
10040212:	1ac0      	subs	r0, r0, r3
10040214:	4152      	adcs	r2, r2
10040216:	0883      	lsrs	r3, r0, #2
10040218:	428b      	cmp	r3, r1
1004021a:	d301      	bcc.n	10040220 <__udivsi3+0xe4>
1004021c:	008b      	lsls	r3, r1, #2
1004021e:	1ac0      	subs	r0, r0, r3
10040220:	4152      	adcs	r2, r2
10040222:	0843      	lsrs	r3, r0, #1
10040224:	428b      	cmp	r3, r1
10040226:	d301      	bcc.n	1004022c <__udivsi3+0xf0>
10040228:	004b      	lsls	r3, r1, #1
1004022a:	1ac0      	subs	r0, r0, r3
1004022c:	4152      	adcs	r2, r2
1004022e:	1a41      	subs	r1, r0, r1
10040230:	d200      	bcs.n	10040234 <__udivsi3+0xf8>
10040232:	4601      	mov	r1, r0
10040234:	4152      	adcs	r2, r2
10040236:	4610      	mov	r0, r2
10040238:	4770      	bx	lr
1004023a:	e7ff      	b.n	1004023c <__udivsi3+0x100>
1004023c:	b501      	push	{r0, lr}
1004023e:	2000      	movs	r0, #0
10040240:	f000 f8f0 	bl	10040424 <__aeabi_idiv0>
10040244:	bd02      	pop	{r1, pc}
10040246:	46c0      	nop			@ (mov r8, r8)

10040248 <__aeabi_uidivmod>:
10040248:	2900      	cmp	r1, #0
1004024a:	d0f7      	beq.n	1004023c <__udivsi3+0x100>
1004024c:	e776      	b.n	1004013c <__udivsi3>
1004024e:	4770      	bx	lr

10040250 <__divsi3>:
10040250:	4603      	mov	r3, r0
10040252:	430b      	orrs	r3, r1
10040254:	d47f      	bmi.n	10040356 <__divsi3+0x106>
10040256:	2200      	movs	r2, #0
10040258:	0843      	lsrs	r3, r0, #1
1004025a:	428b      	cmp	r3, r1
1004025c:	d374      	bcc.n	10040348 <__divsi3+0xf8>
1004025e:	0903      	lsrs	r3, r0, #4
10040260:	428b      	cmp	r3, r1
10040262:	d35f      	bcc.n	10040324 <__divsi3+0xd4>
10040264:	0a03      	lsrs	r3, r0, #8
10040266:	428b      	cmp	r3, r1
10040268:	d344      	bcc.n	100402f4 <__divsi3+0xa4>
1004026a:	0b03      	lsrs	r3, r0, #12
1004026c:	428b      	cmp	r3, r1
1004026e:	d328      	bcc.n	100402c2 <__divsi3+0x72>
10040270:	0c03      	lsrs	r3, r0, #16
10040272:	428b      	cmp	r3, r1
10040274:	d30d      	bcc.n	10040292 <__divsi3+0x42>
10040276:	22ff      	movs	r2, #255	@ 0xff
10040278:	0209      	lsls	r1, r1, #8
1004027a:	ba12      	rev	r2, r2
1004027c:	0c03      	lsrs	r3, r0, #16
1004027e:	428b      	cmp	r3, r1
10040280:	d302      	bcc.n	10040288 <__divsi3+0x38>
10040282:	1212      	asrs	r2, r2, #8
10040284:	0209      	lsls	r1, r1, #8
10040286:	d065      	beq.n	10040354 <__divsi3+0x104>
10040288:	0b03      	lsrs	r3, r0, #12
1004028a:	428b      	cmp	r3, r1
1004028c:	d319      	bcc.n	100402c2 <__divsi3+0x72>
1004028e:	e000      	b.n	10040292 <__divsi3+0x42>
10040290:	0a09      	lsrs	r1, r1, #8
10040292:	0bc3      	lsrs	r3, r0, #15
10040294:	428b      	cmp	r3, r1
10040296:	d301      	bcc.n	1004029c <__divsi3+0x4c>
10040298:	03cb      	lsls	r3, r1, #15
1004029a:	1ac0      	subs	r0, r0, r3
1004029c:	4152      	adcs	r2, r2
1004029e:	0b83      	lsrs	r3, r0, #14
100402a0:	428b      	cmp	r3, r1
100402a2:	d301      	bcc.n	100402a8 <__divsi3+0x58>
100402a4:	038b      	lsls	r3, r1, #14
100402a6:	1ac0      	subs	r0, r0, r3
100402a8:	4152      	adcs	r2, r2
100402aa:	0b43      	lsrs	r3, r0, #13
100402ac:	428b      	cmp	r3, r1
100402ae:	d301      	bcc.n	100402b4 <__divsi3+0x64>
100402b0:	034b      	lsls	r3, r1, #13
100402b2:	1ac0      	subs	r0, r0, r3
100402b4:	4152      	adcs	r2, r2
100402b6:	0b03      	lsrs	r3, r0, #12
100402b8:	428b      	cmp	r3, r1
100402ba:	d301      	bcc.n	100402c0 <__divsi3+0x70>
100402bc:	030b      	lsls	r3, r1, #12
100402be:	1ac0      	subs	r0, r0, r3
100402c0:	4152      	adcs	r2, r2
100402c2:	0ac3      	lsrs	r3, r0, #11
100402c4:	428b      	cmp	r3, r1
100402c6:	d301      	bcc.n	100402cc <__divsi3+0x7c>
100402c8:	02cb      	lsls	r3, r1, #11
100402ca:	1ac0      	subs	r0, r0, r3
100402cc:	4152      	adcs	r2, r2
100402ce:	0a83      	lsrs	r3, r0, #10
100402d0:	428b      	cmp	r3, r1
100402d2:	d301      	bcc.n	100402d8 <__divsi3+0x88>
100402d4:	028b      	lsls	r3, r1, #10
100402d6:	1ac0      	subs	r0, r0, r3
100402d8:	4152      	adcs	r2, r2
100402da:	0a43      	lsrs	r3, r0, #9
100402dc:	428b      	cmp	r3, r1
100402de:	d301      	bcc.n	100402e4 <__divsi3+0x94>
100402e0:	024b      	lsls	r3, r1, #9
100402e2:	1ac0      	subs	r0, r0, r3
100402e4:	4152      	adcs	r2, r2
100402e6:	0a03      	lsrs	r3, r0, #8
100402e8:	428b      	cmp	r3, r1
100402ea:	d301      	bcc.n	100402f0 <__divsi3+0xa0>
100402ec:	020b      	lsls	r3, r1, #8
100402ee:	1ac0      	subs	r0, r0, r3
100402f0:	4152      	adcs	r2, r2
100402f2:	d2cd      	bcs.n	10040290 <__divsi3+0x40>
100402f4:	09c3      	lsrs	r3, r0, #7
100402f6:	428b      	cmp	r3, r1
100402f8:	d301      	bcc.n	100402fe <__divsi3+0xae>
100402fa:	01cb      	lsls	r3, r1, #7
100402fc:	1ac0      	subs	r0, r0, r3
100402fe:	4152      	adcs	r2, r2
10040300:	0983      	lsrs	r3, r0, #6
10040302:	428b      	cmp	r3, r1
10040304:	d301      	bcc.n	1004030a <__divsi3+0xba>
10040306:	018b      	lsls	r3, r1, #6
10040308:	1ac0      	subs	r0, r0, r3
1004030a:	4152      	adcs	r2, r2
1004030c:	0943      	lsrs	r3, r0, #5
1004030e:	428b      	cmp	r3, r1
10040310:	d301      	bcc.n	10040316 <__divsi3+0xc6>
10040312:	014b      	lsls	r3, r1, #5
10040314:	1ac0      	subs	r0, r0, r3
10040316:	4152      	adcs	r2, r2
10040318:	0903      	lsrs	r3, r0, #4
1004031a:	428b      	cmp	r3, r1
1004031c:	d301      	bcc.n	10040322 <__divsi3+0xd2>
1004031e:	010b      	lsls	r3, r1, #4
10040320:	1ac0      	subs	r0, r0, r3
10040322:	4152      	adcs	r2, r2
10040324:	08c3      	lsrs	r3, r0, #3
10040326:	428b      	cmp	r3, r1
10040328:	d301      	bcc.n	1004032e <__divsi3+0xde>
1004032a:	00cb      	lsls	r3, r1, #3
1004032c:	1ac0      	subs	r0, r0, r3
1004032e:	4152      	adcs	r2, r2
10040330:	0883      	lsrs	r3, r0, #2
10040332:	428b      	cmp	r3, r1
10040334:	d301      	bcc.n	1004033a <__divsi3+0xea>
10040336:	008b      	lsls	r3, r1, #2
10040338:	1ac0      	subs	r0, r0, r3
1004033a:	4152      	adcs	r2, r2
1004033c:	0843      	lsrs	r3, r0, #1
1004033e:	428b      	cmp	r3, r1
10040340:	d301      	bcc.n	10040346 <__divsi3+0xf6>
10040342:	004b      	lsls	r3, r1, #1
10040344:	1ac0      	subs	r0, r0, r3
10040346:	4152      	adcs	r2, r2
10040348:	1a41      	subs	r1, r0, r1
1004034a:	d200      	bcs.n	1004034e <__divsi3+0xfe>
1004034c:	4601      	mov	r1, r0
1004034e:	4152      	adcs	r2, r2
10040350:	4610      	mov	r0, r2
10040352:	4770      	bx	lr
10040354:	e05d      	b.n	10040412 <__divsi3+0x1c2>
10040356:	0fca      	lsrs	r2, r1, #31
10040358:	d000      	beq.n	1004035c <__divsi3+0x10c>
1004035a:	4249      	negs	r1, r1
1004035c:	1003      	asrs	r3, r0, #32
1004035e:	d300      	bcc.n	10040362 <__divsi3+0x112>
10040360:	4240      	negs	r0, r0
10040362:	4053      	eors	r3, r2
10040364:	2200      	movs	r2, #0
10040366:	469c      	mov	ip, r3
10040368:	0903      	lsrs	r3, r0, #4
1004036a:	428b      	cmp	r3, r1
1004036c:	d32d      	bcc.n	100403ca <__divsi3+0x17a>
1004036e:	0a03      	lsrs	r3, r0, #8
10040370:	428b      	cmp	r3, r1
10040372:	d312      	bcc.n	1004039a <__divsi3+0x14a>
10040374:	22fc      	movs	r2, #252	@ 0xfc
10040376:	0189      	lsls	r1, r1, #6
10040378:	ba12      	rev	r2, r2
1004037a:	0a03      	lsrs	r3, r0, #8
1004037c:	428b      	cmp	r3, r1
1004037e:	d30c      	bcc.n	1004039a <__divsi3+0x14a>
10040380:	0189      	lsls	r1, r1, #6
10040382:	1192      	asrs	r2, r2, #6
10040384:	428b      	cmp	r3, r1
10040386:	d308      	bcc.n	1004039a <__divsi3+0x14a>
10040388:	0189      	lsls	r1, r1, #6
1004038a:	1192      	asrs	r2, r2, #6
1004038c:	428b      	cmp	r3, r1
1004038e:	d304      	bcc.n	1004039a <__divsi3+0x14a>
10040390:	0189      	lsls	r1, r1, #6
10040392:	d03a      	beq.n	1004040a <__divsi3+0x1ba>
10040394:	1192      	asrs	r2, r2, #6
10040396:	e000      	b.n	1004039a <__divsi3+0x14a>
10040398:	0989      	lsrs	r1, r1, #6
1004039a:	09c3      	lsrs	r3, r0, #7
1004039c:	428b      	cmp	r3, r1
1004039e:	d301      	bcc.n	100403a4 <__divsi3+0x154>
100403a0:	01cb      	lsls	r3, r1, #7
100403a2:	1ac0      	subs	r0, r0, r3
100403a4:	4152      	adcs	r2, r2
100403a6:	0983      	lsrs	r3, r0, #6
100403a8:	428b      	cmp	r3, r1
100403aa:	d301      	bcc.n	100403b0 <__divsi3+0x160>
100403ac:	018b      	lsls	r3, r1, #6
100403ae:	1ac0      	subs	r0, r0, r3
100403b0:	4152      	adcs	r2, r2
100403b2:	0943      	lsrs	r3, r0, #5
100403b4:	428b      	cmp	r3, r1
100403b6:	d301      	bcc.n	100403bc <__divsi3+0x16c>
100403b8:	014b      	lsls	r3, r1, #5
100403ba:	1ac0      	subs	r0, r0, r3
100403bc:	4152      	adcs	r2, r2
100403be:	0903      	lsrs	r3, r0, #4
100403c0:	428b      	cmp	r3, r1
100403c2:	d301      	bcc.n	100403c8 <__divsi3+0x178>
100403c4:	010b      	lsls	r3, r1, #4
100403c6:	1ac0      	subs	r0, r0, r3
100403c8:	4152      	adcs	r2, r2
100403ca:	08c3      	lsrs	r3, r0, #3
100403cc:	428b      	cmp	r3, r1
100403ce:	d301      	bcc.n	100403d4 <__divsi3+0x184>
100403d0:	00cb      	lsls	r3, r1, #3
100403d2:	1ac0      	subs	r0, r0, r3
100403d4:	4152      	adcs	r2, r2
100403d6:	0883      	lsrs	r3, r0, #2
100403d8:	428b      	cmp	r3, r1
100403da:	d301      	bcc.n	100403e0 <__divsi3+0x190>
100403dc:	008b      	lsls	r3, r1, #2
100403de:	1ac0      	subs	r0, r0, r3
100403e0:	4152      	adcs	r2, r2
100403e2:	d2d9      	bcs.n	10040398 <__divsi3+0x148>
100403e4:	0843      	lsrs	r3, r0, #1
100403e6:	428b      	cmp	r3, r1
100403e8:	d301      	bcc.n	100403ee <__divsi3+0x19e>
100403ea:	004b      	lsls	r3, r1, #1
100403ec:	1ac0      	subs	r0, r0, r3
100403ee:	4152      	adcs	r2, r2
100403f0:	1a41      	subs	r1, r0, r1
100403f2:	d200      	bcs.n	100403f6 <__divsi3+0x1a6>
100403f4:	4601      	mov	r1, r0
100403f6:	4663      	mov	r3, ip
100403f8:	4152      	adcs	r2, r2
100403fa:	105b      	asrs	r3, r3, #1
100403fc:	4610      	mov	r0, r2
100403fe:	d301      	bcc.n	10040404 <__divsi3+0x1b4>
10040400:	4240      	negs	r0, r0
10040402:	2b00      	cmp	r3, #0
10040404:	d500      	bpl.n	10040408 <__divsi3+0x1b8>
10040406:	4249      	negs	r1, r1
10040408:	4770      	bx	lr
1004040a:	4663      	mov	r3, ip
1004040c:	105b      	asrs	r3, r3, #1
1004040e:	d300      	bcc.n	10040412 <__divsi3+0x1c2>
10040410:	4240      	negs	r0, r0
10040412:	b501      	push	{r0, lr}
10040414:	2000      	movs	r0, #0
10040416:	f000 f805 	bl	10040424 <__aeabi_idiv0>
1004041a:	bd02      	pop	{r1, pc}

1004041c <__aeabi_idivmod>:
1004041c:	2900      	cmp	r1, #0
1004041e:	d0f8      	beq.n	10040412 <__divsi3+0x1c2>
10040420:	e716      	b.n	10040250 <__divsi3>
10040422:	4770      	bx	lr

10040424 <__aeabi_idiv0>:
10040424:	4770      	bx	lr
10040426:	46c0      	nop			@ (mov r8, r8)

10040428 <__aeabi_uldivmod>:
10040428:	2b00      	cmp	r3, #0
1004042a:	d111      	bne.n	10040450 <__aeabi_uldivmod+0x28>
1004042c:	2a00      	cmp	r2, #0
1004042e:	d10f      	bne.n	10040450 <__aeabi_uldivmod+0x28>
10040430:	2900      	cmp	r1, #0
10040432:	d100      	bne.n	10040436 <__aeabi_uldivmod+0xe>
10040434:	2800      	cmp	r0, #0
10040436:	d002      	beq.n	1004043e <__aeabi_uldivmod+0x16>
10040438:	2100      	movs	r1, #0
1004043a:	43c9      	mvns	r1, r1
1004043c:	0008      	movs	r0, r1
1004043e:	b407      	push	{r0, r1, r2}
10040440:	4802      	ldr	r0, [pc, #8]	@ (1004044c <__aeabi_uldivmod+0x24>)
10040442:	a102      	add	r1, pc, #8	@ (adr r1, 1004044c <__aeabi_uldivmod+0x24>)
10040444:	1840      	adds	r0, r0, r1
10040446:	9002      	str	r0, [sp, #8]
10040448:	bd03      	pop	{r0, r1, pc}
1004044a:	46c0      	nop			@ (mov r8, r8)
1004044c:	ffffffd9 	.word	0xffffffd9
10040450:	b403      	push	{r0, r1}
10040452:	4668      	mov	r0, sp
10040454:	b501      	push	{r0, lr}
10040456:	9802      	ldr	r0, [sp, #8]
10040458:	f000 f806 	bl	10040468 <__udivmoddi4>
1004045c:	9b01      	ldr	r3, [sp, #4]
1004045e:	469e      	mov	lr, r3
10040460:	b002      	add	sp, #8
10040462:	bc0c      	pop	{r2, r3}
10040464:	4770      	bx	lr
10040466:	46c0      	nop			@ (mov r8, r8)

10040468 <__udivmoddi4>:
10040468:	b5f0      	push	{r4, r5, r6, r7, lr}
1004046a:	4657      	mov	r7, sl
1004046c:	464e      	mov	r6, r9
1004046e:	4645      	mov	r5, r8
10040470:	46de      	mov	lr, fp
10040472:	b5e0      	push	{r5, r6, r7, lr}
10040474:	0004      	movs	r4, r0
10040476:	000d      	movs	r5, r1
10040478:	4692      	mov	sl, r2
1004047a:	4699      	mov	r9, r3
1004047c:	b083      	sub	sp, #12
1004047e:	428b      	cmp	r3, r1
10040480:	d830      	bhi.n	100404e4 <__udivmoddi4+0x7c>
10040482:	d02d      	beq.n	100404e0 <__udivmoddi4+0x78>
10040484:	4649      	mov	r1, r9
10040486:	4650      	mov	r0, sl
10040488:	f000 f8ba 	bl	10040600 <__clzdi2>
1004048c:	0029      	movs	r1, r5
1004048e:	0006      	movs	r6, r0
10040490:	0020      	movs	r0, r4
10040492:	f000 f8b5 	bl	10040600 <__clzdi2>
10040496:	1a33      	subs	r3, r6, r0
10040498:	4698      	mov	r8, r3
1004049a:	3b20      	subs	r3, #32
1004049c:	d434      	bmi.n	10040508 <__udivmoddi4+0xa0>
1004049e:	469b      	mov	fp, r3
100404a0:	4653      	mov	r3, sl
100404a2:	465a      	mov	r2, fp
100404a4:	4093      	lsls	r3, r2
100404a6:	4642      	mov	r2, r8
100404a8:	001f      	movs	r7, r3
100404aa:	4653      	mov	r3, sl
100404ac:	4093      	lsls	r3, r2
100404ae:	001e      	movs	r6, r3
100404b0:	42af      	cmp	r7, r5
100404b2:	d83b      	bhi.n	1004052c <__udivmoddi4+0xc4>
100404b4:	42af      	cmp	r7, r5
100404b6:	d100      	bne.n	100404ba <__udivmoddi4+0x52>
100404b8:	e079      	b.n	100405ae <__udivmoddi4+0x146>
100404ba:	465b      	mov	r3, fp
100404bc:	1ba4      	subs	r4, r4, r6
100404be:	41bd      	sbcs	r5, r7
100404c0:	2b00      	cmp	r3, #0
100404c2:	da00      	bge.n	100404c6 <__udivmoddi4+0x5e>
100404c4:	e076      	b.n	100405b4 <__udivmoddi4+0x14c>
100404c6:	2200      	movs	r2, #0
100404c8:	2300      	movs	r3, #0
100404ca:	9200      	str	r2, [sp, #0]
100404cc:	9301      	str	r3, [sp, #4]
100404ce:	2301      	movs	r3, #1
100404d0:	465a      	mov	r2, fp
100404d2:	4093      	lsls	r3, r2
100404d4:	9301      	str	r3, [sp, #4]
100404d6:	2301      	movs	r3, #1
100404d8:	4642      	mov	r2, r8
100404da:	4093      	lsls	r3, r2
100404dc:	9300      	str	r3, [sp, #0]
100404de:	e029      	b.n	10040534 <__udivmoddi4+0xcc>
100404e0:	4282      	cmp	r2, r0
100404e2:	d9cf      	bls.n	10040484 <__udivmoddi4+0x1c>
100404e4:	2200      	movs	r2, #0
100404e6:	2300      	movs	r3, #0
100404e8:	9200      	str	r2, [sp, #0]
100404ea:	9301      	str	r3, [sp, #4]
100404ec:	9b0c      	ldr	r3, [sp, #48]	@ 0x30
100404ee:	2b00      	cmp	r3, #0
100404f0:	d001      	beq.n	100404f6 <__udivmoddi4+0x8e>
100404f2:	601c      	str	r4, [r3, #0]
100404f4:	605d      	str	r5, [r3, #4]
100404f6:	9800      	ldr	r0, [sp, #0]
100404f8:	9901      	ldr	r1, [sp, #4]
100404fa:	b003      	add	sp, #12
100404fc:	bcf0      	pop	{r4, r5, r6, r7}
100404fe:	46bb      	mov	fp, r7
10040500:	46b2      	mov	sl, r6
10040502:	46a9      	mov	r9, r5
10040504:	46a0      	mov	r8, r4
10040506:	bdf0      	pop	{r4, r5, r6, r7, pc}
10040508:	4642      	mov	r2, r8
1004050a:	469b      	mov	fp, r3
1004050c:	2320      	movs	r3, #32
1004050e:	1a9b      	subs	r3, r3, r2
10040510:	4652      	mov	r2, sl
10040512:	40da      	lsrs	r2, r3
10040514:	4641      	mov	r1, r8
10040516:	0013      	movs	r3, r2
10040518:	464a      	mov	r2, r9
1004051a:	408a      	lsls	r2, r1
1004051c:	0017      	movs	r7, r2
1004051e:	4642      	mov	r2, r8
10040520:	431f      	orrs	r7, r3
10040522:	4653      	mov	r3, sl
10040524:	4093      	lsls	r3, r2
10040526:	001e      	movs	r6, r3
10040528:	42af      	cmp	r7, r5
1004052a:	d9c3      	bls.n	100404b4 <__udivmoddi4+0x4c>
1004052c:	2200      	movs	r2, #0
1004052e:	2300      	movs	r3, #0
10040530:	9200      	str	r2, [sp, #0]
10040532:	9301      	str	r3, [sp, #4]
10040534:	4643      	mov	r3, r8
10040536:	2b00      	cmp	r3, #0
10040538:	d0d8      	beq.n	100404ec <__udivmoddi4+0x84>
1004053a:	07fb      	lsls	r3, r7, #31
1004053c:	0872      	lsrs	r2, r6, #1
1004053e:	431a      	orrs	r2, r3
10040540:	4646      	mov	r6, r8
10040542:	087b      	lsrs	r3, r7, #1
10040544:	e00e      	b.n	10040564 <__udivmoddi4+0xfc>
10040546:	42ab      	cmp	r3, r5
10040548:	d101      	bne.n	1004054e <__udivmoddi4+0xe6>
1004054a:	42a2      	cmp	r2, r4
1004054c:	d80c      	bhi.n	10040568 <__udivmoddi4+0x100>
1004054e:	1aa4      	subs	r4, r4, r2
10040550:	419d      	sbcs	r5, r3
10040552:	2001      	movs	r0, #1
10040554:	1924      	adds	r4, r4, r4
10040556:	416d      	adcs	r5, r5
10040558:	2100      	movs	r1, #0
1004055a:	3e01      	subs	r6, #1
1004055c:	1824      	adds	r4, r4, r0
1004055e:	414d      	adcs	r5, r1
10040560:	2e00      	cmp	r6, #0
10040562:	d006      	beq.n	10040572 <__udivmoddi4+0x10a>
10040564:	42ab      	cmp	r3, r5
10040566:	d9ee      	bls.n	10040546 <__udivmoddi4+0xde>
10040568:	3e01      	subs	r6, #1
1004056a:	1924      	adds	r4, r4, r4
1004056c:	416d      	adcs	r5, r5
1004056e:	2e00      	cmp	r6, #0
10040570:	d1f8      	bne.n	10040564 <__udivmoddi4+0xfc>
10040572:	9800      	ldr	r0, [sp, #0]
10040574:	9901      	ldr	r1, [sp, #4]
10040576:	465b      	mov	r3, fp
10040578:	1900      	adds	r0, r0, r4
1004057a:	4169      	adcs	r1, r5
1004057c:	2b00      	cmp	r3, #0
1004057e:	db24      	blt.n	100405ca <__udivmoddi4+0x162>
10040580:	002b      	movs	r3, r5
10040582:	465a      	mov	r2, fp
10040584:	4644      	mov	r4, r8
10040586:	40d3      	lsrs	r3, r2
10040588:	002a      	movs	r2, r5
1004058a:	40e2      	lsrs	r2, r4
1004058c:	001c      	movs	r4, r3
1004058e:	465b      	mov	r3, fp
10040590:	0015      	movs	r5, r2
10040592:	2b00      	cmp	r3, #0
10040594:	db2a      	blt.n	100405ec <__udivmoddi4+0x184>
10040596:	0026      	movs	r6, r4
10040598:	409e      	lsls	r6, r3
1004059a:	0033      	movs	r3, r6
1004059c:	0026      	movs	r6, r4
1004059e:	4647      	mov	r7, r8
100405a0:	40be      	lsls	r6, r7
100405a2:	0032      	movs	r2, r6
100405a4:	1a80      	subs	r0, r0, r2
100405a6:	4199      	sbcs	r1, r3
100405a8:	9000      	str	r0, [sp, #0]
100405aa:	9101      	str	r1, [sp, #4]
100405ac:	e79e      	b.n	100404ec <__udivmoddi4+0x84>
100405ae:	42a3      	cmp	r3, r4
100405b0:	d8bc      	bhi.n	1004052c <__udivmoddi4+0xc4>
100405b2:	e782      	b.n	100404ba <__udivmoddi4+0x52>
100405b4:	4642      	mov	r2, r8
100405b6:	2320      	movs	r3, #32
100405b8:	2100      	movs	r1, #0
100405ba:	1a9b      	subs	r3, r3, r2
100405bc:	2200      	movs	r2, #0
100405be:	9100      	str	r1, [sp, #0]
100405c0:	9201      	str	r2, [sp, #4]
100405c2:	2201      	movs	r2, #1
100405c4:	40da      	lsrs	r2, r3
100405c6:	9201      	str	r2, [sp, #4]
100405c8:	e785      	b.n	100404d6 <__udivmoddi4+0x6e>
100405ca:	4642      	mov	r2, r8
100405cc:	2320      	movs	r3, #32
100405ce:	1a9b      	subs	r3, r3, r2
100405d0:	002a      	movs	r2, r5
100405d2:	4646      	mov	r6, r8
100405d4:	409a      	lsls	r2, r3
100405d6:	0023      	movs	r3, r4
100405d8:	40f3      	lsrs	r3, r6
100405da:	4644      	mov	r4, r8
100405dc:	4313      	orrs	r3, r2
100405de:	002a      	movs	r2, r5
100405e0:	40e2      	lsrs	r2, r4
100405e2:	001c      	movs	r4, r3
100405e4:	465b      	mov	r3, fp
100405e6:	0015      	movs	r5, r2
100405e8:	2b00      	cmp	r3, #0
100405ea:	dad4      	bge.n	10040596 <__udivmoddi4+0x12e>
100405ec:	4642      	mov	r2, r8
100405ee:	002f      	movs	r7, r5
100405f0:	2320      	movs	r3, #32
100405f2:	0026      	movs	r6, r4
100405f4:	4097      	lsls	r7, r2
100405f6:	1a9b      	subs	r3, r3, r2
100405f8:	40de      	lsrs	r6, r3
100405fa:	003b      	movs	r3, r7
100405fc:	4333      	orrs	r3, r6
100405fe:	e7cd      	b.n	1004059c <__udivmoddi4+0x134>

10040600 <__clzdi2>:
10040600:	b510      	push	{r4, lr}
10040602:	2900      	cmp	r1, #0
10040604:	d103      	bne.n	1004060e <__clzdi2+0xe>
10040606:	f000 f807 	bl	10040618 <__clzsi2>
1004060a:	3020      	adds	r0, #32
1004060c:	e002      	b.n	10040614 <__clzdi2+0x14>
1004060e:	0008      	movs	r0, r1
10040610:	f000 f802 	bl	10040618 <__clzsi2>
10040614:	bd10      	pop	{r4, pc}
10040616:	46c0      	nop			@ (mov r8, r8)

10040618 <__clzsi2>:
10040618:	211c      	movs	r1, #28
1004061a:	2301      	movs	r3, #1
1004061c:	041b      	lsls	r3, r3, #16
1004061e:	4298      	cmp	r0, r3
10040620:	d301      	bcc.n	10040626 <__clzsi2+0xe>
10040622:	0c00      	lsrs	r0, r0, #16
10040624:	3910      	subs	r1, #16
10040626:	0a1b      	lsrs	r3, r3, #8
10040628:	4298      	cmp	r0, r3
1004062a:	d301      	bcc.n	10040630 <__clzsi2+0x18>
1004062c:	0a00      	lsrs	r0, r0, #8
1004062e:	3908      	subs	r1, #8
10040630:	091b      	lsrs	r3, r3, #4
10040632:	4298      	cmp	r0, r3
10040634:	d301      	bcc.n	1004063a <__clzsi2+0x22>
10040636:	0900      	lsrs	r0, r0, #4
10040638:	3904      	subs	r1, #4
1004063a:	a202      	add	r2, pc, #8	@ (adr r2, 10040644 <__clzsi2+0x2c>)
1004063c:	5c10      	ldrb	r0, [r2, r0]
1004063e:	1840      	adds	r0, r0, r1
10040640:	4770      	bx	lr
10040642:	46c0      	nop			@ (mov r8, r8)
10040644:	02020304 	.word	0x02020304
10040648:	01010101 	.word	0x01010101
	...

10040654 <SystemClock_Config>:
10040654:	b500      	push	{lr}
10040656:	b089      	sub	sp, #36	@ 0x24
10040658:	2210      	movs	r2, #16
1004065a:	2100      	movs	r1, #0
1004065c:	a804      	add	r0, sp, #16
1004065e:	f003 f80f 	bl	10043680 <memset>
10040662:	2208      	movs	r2, #8
10040664:	2100      	movs	r1, #0
10040666:	4668      	mov	r0, sp
10040668:	f003 f80a 	bl	10043680 <memset>
1004066c:	2305      	movs	r3, #5
1004066e:	9302      	str	r3, [sp, #8]
10040670:	2380      	movs	r3, #128	@ 0x80
10040672:	025b      	lsls	r3, r3, #9
10040674:	9303      	str	r3, [sp, #12]
10040676:	2304      	movs	r3, #4
10040678:	a802      	add	r0, sp, #8
1004067a:	9306      	str	r3, [sp, #24]
1004067c:	f001 fe9c 	bl	100423b8 <HAL_RCC_OscConfig>
10040680:	0003      	movs	r3, r0
10040682:	2000      	movs	r0, #0
10040684:	4283      	cmp	r3, r0
10040686:	d107      	bne.n	10040698 <SystemClock_Config+0x44>
10040688:	9000      	str	r0, [sp, #0]
1004068a:	9001      	str	r0, [sp, #4]
1004068c:	2110      	movs	r1, #16
1004068e:	4668      	mov	r0, sp
10040690:	f001 ffce 	bl	10042630 <HAL_RCC_ClockConfig>
10040694:	4243      	negs	r3, r0
10040696:	4158      	adcs	r0, r3
10040698:	b009      	add	sp, #36	@ 0x24
1004069a:	bd00      	pop	{pc}

1004069c <PeriphCommonClock_Config>:
1004069c:	b57f      	push	{r0, r1, r2, r3, r4, r5, r6, lr}
1004069e:	2210      	movs	r2, #16
100406a0:	2100      	movs	r1, #0
100406a2:	a801      	add	r0, sp, #4
100406a4:	f002 ffec 	bl	10043680 <memset>
100406a8:	2302      	movs	r3, #2
100406aa:	9300      	str	r3, [sp, #0]
100406ac:	2380      	movs	r3, #128	@ 0x80
100406ae:	4668      	mov	r0, sp
100406b0:	015b      	lsls	r3, r3, #5
100406b2:	9305      	str	r3, [sp, #20]
100406b4:	f002 f862 	bl	1004277c <HAL_RCCEx_PeriphCLKConfig>
100406b8:	4243      	negs	r3, r0
100406ba:	4158      	adcs	r0, r3
100406bc:	b007      	add	sp, #28
100406be:	bd00      	pop	{pc}

100406c0 <BOARD_Init>:
100406c0:	b510      	push	{r4, lr}
100406c2:	f000 fefb 	bl	100414bc <HAL_Init>
100406c6:	f7ff ffe9 	bl	1004069c <PeriphCommonClock_Config>
100406ca:	0004      	movs	r4, r0
100406cc:	f7ff ffc2 	bl	10040654 <SystemClock_Config>
100406d0:	2800      	cmp	r0, #0
100406d2:	d002      	beq.n	100406da <BOARD_Init+0x1a>
100406d4:	0020      	movs	r0, r4
100406d6:	1e43      	subs	r3, r0, #1
100406d8:	4198      	sbcs	r0, r3
100406da:	bd10      	pop	{r4, pc}

100406dc <BOARD_CrashHandler>:
100406dc:	b672      	cpsid	i
100406de:	e7fe      	b.n	100406de <BOARD_CrashHandler+0x2>

100406e0 <Error_Handler>:
100406e0:	b672      	cpsid	i
100406e2:	e7fe      	b.n	100406e2 <Error_Handler+0x2>

100406e4 <COMM_Event_Post>:
100406e4:	b507      	push	{r0, r1, r2, lr}
100406e6:	4b03      	ldr	r3, [pc, #12]	@ (100406f4 <COMM_Event_Post+0x10>)
100406e8:	0001      	movs	r1, r0
100406ea:	6818      	ldr	r0, [r3, #0]
100406ec:	f000 f968 	bl	100409c0 <FIFO_Enqueue>
100406f0:	bd07      	pop	{r0, r1, r2, pc}
100406f2:	46c0      	nop			@ (mov r8, r8)
100406f4:	200001a0 	.word	0x200001a0

100406f8 <COMM_Event_Init>:
100406f8:	2200      	movs	r2, #0
100406fa:	b513      	push	{r0, r1, r4, lr}
100406fc:	2401      	movs	r4, #1
100406fe:	4b06      	ldr	r3, [pc, #24]	@ (10040718 <COMM_Event_Init+0x20>)
10040700:	701a      	strb	r2, [r3, #0]
10040702:	4b06      	ldr	r3, [pc, #24]	@ (1004071c <COMM_Event_Init+0x24>)
10040704:	6018      	str	r0, [r3, #0]
10040706:	ab01      	add	r3, sp, #4
10040708:	701c      	strb	r4, [r3, #0]
1004070a:	805a      	strh	r2, [r3, #2]
1004070c:	9801      	ldr	r0, [sp, #4]
1004070e:	f7ff ffe9 	bl	100406e4 <COMM_Event_Post>
10040712:	0020      	movs	r0, r4
10040714:	bd16      	pop	{r1, r2, r4, pc}
10040716:	46c0      	nop			@ (mov r8, r8)
10040718:	200001a4 	.word	0x200001a4
1004071c:	200001a0 	.word	0x200001a0

10040720 <COMM_Event_Updater>:
10040720:	b5f7      	push	{r0, r1, r2, r4, r5, r6, r7, lr}
10040722:	f000 fb71 	bl	10040e08 <USART_ReadRx>
10040726:	0004      	movs	r4, r0
10040728:	2825      	cmp	r0, #37	@ 0x25
1004072a:	d022      	beq.n	10040772 <COMM_Event_Updater+0x52>
1004072c:	2606      	movs	r6, #6
1004072e:	2701      	movs	r7, #1
10040730:	4b12      	ldr	r3, [pc, #72]	@ (1004077c <COMM_Event_Updater+0x5c>)
10040732:	ad01      	add	r5, sp, #4
10040734:	781b      	ldrb	r3, [r3, #0]
10040736:	2b01      	cmp	r3, #1
10040738:	d10c      	bne.n	10040754 <COMM_Event_Updater+0x34>
1004073a:	f000 fbb1 	bl	10040ea0 <USART_TxEmpty>
1004073e:	2800      	cmp	r0, #0
10040740:	d008      	beq.n	10040754 <COMM_Event_Updater+0x34>
10040742:	4b0f      	ldr	r3, [pc, #60]	@ (10040780 <COMM_Event_Updater+0x60>)
10040744:	6818      	ldr	r0, [r3, #0]
10040746:	2307      	movs	r3, #7
10040748:	702b      	strb	r3, [r5, #0]
1004074a:	2300      	movs	r3, #0
1004074c:	806b      	strh	r3, [r5, #2]
1004074e:	9901      	ldr	r1, [sp, #4]
10040750:	f000 f936 	bl	100409c0 <FIFO_Enqueue>
10040754:	2f00      	cmp	r7, #0
10040756:	d007      	beq.n	10040768 <COMM_Event_Updater+0x48>
10040758:	4b09      	ldr	r3, [pc, #36]	@ (10040780 <COMM_Event_Updater+0x60>)
1004075a:	6818      	ldr	r0, [r3, #0]
1004075c:	466b      	mov	r3, sp
1004075e:	701e      	strb	r6, [r3, #0]
10040760:	805c      	strh	r4, [r3, #2]
10040762:	9900      	ldr	r1, [sp, #0]
10040764:	f000 f92c 	bl	100409c0 <FIFO_Enqueue>
10040768:	702e      	strb	r6, [r5, #0]
1004076a:	8828      	ldrh	r0, [r5, #0]
1004076c:	0424      	lsls	r4, r4, #16
1004076e:	4320      	orrs	r0, r4
10040770:	bdfe      	pop	{r1, r2, r3, r4, r5, r6, r7, pc}
10040772:	2400      	movs	r4, #0
10040774:	0026      	movs	r6, r4
10040776:	0027      	movs	r7, r4
10040778:	e7da      	b.n	10040730 <COMM_Event_Updater+0x10>
1004077a:	46c0      	nop			@ (mov r8, r8)
1004077c:	2000019c 	.word	0x2000019c
10040780:	200001a0 	.word	0x200001a0

10040784 <COMM_Event_Handler>:
10040784:	b530      	push	{r4, r5, lr}
10040786:	4d71      	ldr	r5, [pc, #452]	@ (1004094c <COMM_Event_Handler+0x1c8>)
10040788:	b243      	sxtb	r3, r0
1004078a:	0c02      	lsrs	r2, r0, #16
1004078c:	7828      	ldrb	r0, [r5, #0]
1004078e:	b093      	sub	sp, #76	@ 0x4c
10040790:	280f      	cmp	r0, #15
10040792:	d812      	bhi.n	100407ba <COMM_Event_Handler+0x36>
10040794:	f7ff fcbe 	bl	10040114 <__gnu_thumb1_case_uqi>
10040798:	302a0c08 	.word	0x302a0c08
1004079c:	574a3b37 	.word	0x574a3b37
100407a0:	8c80655b 	.word	0x8c80655b
100407a4:	cbbcb09e 	.word	0xcbbcb09e
100407a8:	2b01      	cmp	r3, #1
100407aa:	d106      	bne.n	100407ba <COMM_Event_Handler+0x36>
100407ac:	2401      	movs	r4, #1
100407ae:	e015      	b.n	100407dc <COMM_Event_Handler+0x58>
100407b0:	2b02      	cmp	r3, #2
100407b2:	d105      	bne.n	100407c0 <COMM_Event_Handler+0x3c>
100407b4:	2200      	movs	r2, #0
100407b6:	4b66      	ldr	r3, [pc, #408]	@ (10040950 <COMM_Event_Handler+0x1cc>)
100407b8:	701a      	strb	r2, [r3, #0]
100407ba:	2001      	movs	r0, #1
100407bc:	b013      	add	sp, #76	@ 0x4c
100407be:	bd30      	pop	{r4, r5, pc}
100407c0:	2b06      	cmp	r3, #6
100407c2:	d1fa      	bne.n	100407ba <COMM_Event_Handler+0x36>
100407c4:	2a05      	cmp	r2, #5
100407c6:	d8f8      	bhi.n	100407ba <COMM_Event_Handler+0x36>
100407c8:	0010      	movs	r0, r2
100407ca:	f7ff fcad 	bl	10040128 <__gnu_thumb1_case_shi>
100407ce:	0006      	.short	0x0006
100407d0:	00b700bd 	.word	0x00b700bd
100407d4:	00b9fff6 	.word	0x00b9fff6
100407d8:	00bb      	.short	0x00bb
100407da:	2402      	movs	r4, #2
100407dc:	2003      	movs	r0, #3
100407de:	f7ff ffd1 	bl	10040784 <COMM_Event_Handler>
100407e2:	2002      	movs	r0, #2
100407e4:	702c      	strb	r4, [r5, #0]
100407e6:	f7ff ffcd 	bl	10040784 <COMM_Event_Handler>
100407ea:	e7e6      	b.n	100407ba <COMM_Event_Handler+0x36>
100407ec:	4859      	ldr	r0, [pc, #356]	@ (10040954 <COMM_Event_Handler+0x1d0>)
100407ee:	2b06      	cmp	r3, #6
100407f0:	d1e3      	bne.n	100407ba <COMM_Event_Handler+0x36>
100407f2:	f000 f8cb 	bl	1004098c <discountprintf>
100407f6:	e7d9      	b.n	100407ac <COMM_Event_Handler+0x28>
100407f8:	2b06      	cmp	r3, #6
100407fa:	d1de      	bne.n	100407ba <COMM_Event_Handler+0x36>
100407fc:	4856      	ldr	r0, [pc, #344]	@ (10040958 <COMM_Event_Handler+0x1d4>)
100407fe:	f000 f8c5 	bl	1004098c <discountprintf>
10040802:	2404      	movs	r4, #4
10040804:	e7ea      	b.n	100407dc <COMM_Event_Handler+0x58>
10040806:	4855      	ldr	r0, [pc, #340]	@ (1004095c <COMM_Event_Handler+0x1d8>)
10040808:	2b06      	cmp	r3, #6
1004080a:	d1d6      	bne.n	100407ba <COMM_Event_Handler+0x36>
1004080c:	e7f1      	b.n	100407f2 <COMM_Event_Handler+0x6e>
1004080e:	2b02      	cmp	r3, #2
10040810:	d1d3      	bne.n	100407ba <COMM_Event_Handler+0x36>
10040812:	2201      	movs	r2, #1
10040814:	2000      	movs	r0, #0
10040816:	4b4e      	ldr	r3, [pc, #312]	@ (10040950 <COMM_Event_Handler+0x1cc>)
10040818:	701a      	strb	r2, [r3, #0]
1004081a:	4b51      	ldr	r3, [pc, #324]	@ (10040960 <COMM_Event_Handler+0x1dc>)
1004081c:	6018      	str	r0, [r3, #0]
1004081e:	f000 fb15 	bl	10040e4c <USART_WriteTx>
10040822:	20ba      	movs	r0, #186	@ 0xba
10040824:	f000 fb12 	bl	10040e4c <USART_WriteTx>
10040828:	2406      	movs	r4, #6
1004082a:	e7d7      	b.n	100407dc <COMM_Event_Handler+0x58>
1004082c:	2b07      	cmp	r3, #7
1004082e:	d1c4      	bne.n	100407ba <COMM_Event_Handler+0x36>
10040830:	223c      	movs	r2, #60	@ 0x3c
10040832:	2080      	movs	r0, #128	@ 0x80
10040834:	494a      	ldr	r1, [pc, #296]	@ (10040960 <COMM_Event_Handler+0x1dc>)
10040836:	0080      	lsls	r0, r0, #2
10040838:	680b      	ldr	r3, [r1, #0]
1004083a:	1ad2      	subs	r2, r2, r3
1004083c:	4282      	cmp	r2, r0
1004083e:	d9b5      	bls.n	100407ac <COMM_Event_Handler+0x28>
10040840:	181b      	adds	r3, r3, r0
10040842:	600b      	str	r3, [r1, #0]
10040844:	e7f0      	b.n	10040828 <COMM_Event_Handler+0xa4>
10040846:	4847      	ldr	r0, [pc, #284]	@ (10040964 <COMM_Event_Handler+0x1e0>)
10040848:	2b06      	cmp	r3, #6
1004084a:	d1b6      	bne.n	100407ba <COMM_Event_Handler+0x36>
1004084c:	e7d1      	b.n	100407f2 <COMM_Event_Handler+0x6e>
1004084e:	2b02      	cmp	r3, #2
10040850:	d1b3      	bne.n	100407ba <COMM_Event_Handler+0x36>
10040852:	4845      	ldr	r0, [pc, #276]	@ (10040968 <COMM_Event_Handler+0x1e4>)
10040854:	f000 f89a 	bl	1004098c <discountprintf>
10040858:	2300      	movs	r3, #0
1004085a:	4a44      	ldr	r2, [pc, #272]	@ (1004096c <COMM_Event_Handler+0x1e8>)
1004085c:	2409      	movs	r4, #9
1004085e:	7013      	strb	r3, [r2, #0]
10040860:	e7bc      	b.n	100407dc <COMM_Event_Handler+0x58>
10040862:	2b06      	cmp	r3, #6
10040864:	d1a9      	bne.n	100407ba <COMM_Event_Handler+0x36>
10040866:	2a0d      	cmp	r2, #13
10040868:	d101      	bne.n	1004086e <COMM_Event_Handler+0xea>
1004086a:	4841      	ldr	r0, [pc, #260]	@ (10040970 <COMM_Event_Handler+0x1ec>)
1004086c:	e7c1      	b.n	100407f2 <COMM_Event_Handler+0x6e>
1004086e:	4b3f      	ldr	r3, [pc, #252]	@ (1004096c <COMM_Event_Handler+0x1e8>)
10040870:	781b      	ldrb	r3, [r3, #0]
10040872:	2bb4      	cmp	r3, #180	@ 0xb4
10040874:	d907      	bls.n	10040886 <COMM_Event_Handler+0x102>
10040876:	483f      	ldr	r0, [pc, #252]	@ (10040974 <COMM_Event_Handler+0x1f0>)
10040878:	f000 f888 	bl	1004098c <discountprintf>
1004087c:	200d      	movs	r0, #13
1004087e:	f000 fae5 	bl	10040e4c <USART_WriteTx>
10040882:	240f      	movs	r4, #15
10040884:	e7aa      	b.n	100407dc <COMM_Event_Handler+0x58>
10040886:	493c      	ldr	r1, [pc, #240]	@ (10040978 <COMM_Event_Handler+0x1f4>)
10040888:	a805      	add	r0, sp, #20
1004088a:	f002 fed9 	bl	10043640 <siprintf>
1004088e:	a805      	add	r0, sp, #20
10040890:	f000 f87c 	bl	1004098c <discountprintf>
10040894:	240a      	movs	r4, #10
10040896:	e7a1      	b.n	100407dc <COMM_Event_Handler+0x58>
10040898:	2b06      	cmp	r3, #6
1004089a:	d000      	beq.n	1004089e <COMM_Event_Handler+0x11a>
1004089c:	e78d      	b.n	100407ba <COMM_Event_Handler+0x36>
1004089e:	4937      	ldr	r1, [pc, #220]	@ (1004097c <COMM_Event_Handler+0x1f8>)
100408a0:	a805      	add	r0, sp, #20
100408a2:	f002 fecd 	bl	10043640 <siprintf>
100408a6:	a805      	add	r0, sp, #20
100408a8:	f000 f870 	bl	1004098c <discountprintf>
100408ac:	240b      	movs	r4, #11
100408ae:	e795      	b.n	100407dc <COMM_Event_Handler+0x58>
100408b0:	2b06      	cmp	r3, #6
100408b2:	d000      	beq.n	100408b6 <COMM_Event_Handler+0x132>
100408b4:	e781      	b.n	100407ba <COMM_Event_Handler+0x36>
100408b6:	2103      	movs	r1, #3
100408b8:	3309      	adds	r3, #9
100408ba:	4011      	ands	r1, r2
100408bc:	434b      	muls	r3, r1
100408be:	211f      	movs	r1, #31
100408c0:	a805      	add	r0, sp, #20
100408c2:	400a      	ands	r2, r1
100408c4:	492e      	ldr	r1, [pc, #184]	@ (10040980 <COMM_Event_Handler+0x1fc>)
100408c6:	f002 febb 	bl	10043640 <siprintf>
100408ca:	a805      	add	r0, sp, #20
100408cc:	f000 f85e 	bl	1004098c <discountprintf>
100408d0:	240c      	movs	r4, #12
100408d2:	e783      	b.n	100407dc <COMM_Event_Handler+0x58>
100408d4:	2b06      	cmp	r3, #6
100408d6:	d000      	beq.n	100408da <COMM_Event_Handler+0x156>
100408d8:	e76f      	b.n	100407ba <COMM_Event_Handler+0x36>
100408da:	2103      	movs	r1, #3
100408dc:	3309      	adds	r3, #9
100408de:	4011      	ands	r1, r2
100408e0:	434b      	muls	r3, r1
100408e2:	211f      	movs	r1, #31
100408e4:	a805      	add	r0, sp, #20
100408e6:	400a      	ands	r2, r1
100408e8:	4925      	ldr	r1, [pc, #148]	@ (10040980 <COMM_Event_Handler+0x1fc>)
100408ea:	f002 fea9 	bl	10043640 <siprintf>
100408ee:	a805      	add	r0, sp, #20
100408f0:	f000 f84c 	bl	1004098c <discountprintf>
100408f4:	240d      	movs	r4, #13
100408f6:	e771      	b.n	100407dc <COMM_Event_Handler+0x58>
100408f8:	2b06      	cmp	r3, #6
100408fa:	d000      	beq.n	100408fe <COMM_Event_Handler+0x17a>
100408fc:	e75d      	b.n	100407ba <COMM_Event_Handler+0x36>
100408fe:	4921      	ldr	r1, [pc, #132]	@ (10040984 <COMM_Event_Handler+0x200>)
10040900:	a805      	add	r0, sp, #20
10040902:	f002 fe9d 	bl	10043640 <siprintf>
10040906:	a805      	add	r0, sp, #20
10040908:	f000 f840 	bl	1004098c <discountprintf>
1004090c:	240e      	movs	r4, #14
1004090e:	e765      	b.n	100407dc <COMM_Event_Handler+0x58>
10040910:	2b06      	cmp	r3, #6
10040912:	d000      	beq.n	10040916 <COMM_Event_Handler+0x192>
10040914:	e751      	b.n	100407ba <COMM_Event_Handler+0x36>
10040916:	491c      	ldr	r1, [pc, #112]	@ (10040988 <COMM_Event_Handler+0x204>)
10040918:	a805      	add	r0, sp, #20
1004091a:	f002 fe91 	bl	10043640 <siprintf>
1004091e:	a805      	add	r0, sp, #20
10040920:	f000 f834 	bl	1004098c <discountprintf>
10040924:	4b11      	ldr	r3, [pc, #68]	@ (1004096c <COMM_Event_Handler+0x1e8>)
10040926:	781b      	ldrb	r3, [r3, #0]
10040928:	3301      	adds	r3, #1
1004092a:	b2db      	uxtb	r3, r3
1004092c:	e795      	b.n	1004085a <COMM_Event_Handler+0xd6>
1004092e:	2b06      	cmp	r3, #6
10040930:	d000      	beq.n	10040934 <COMM_Event_Handler+0x1b0>
10040932:	e742      	b.n	100407ba <COMM_Event_Handler+0x36>
10040934:	2a0d      	cmp	r2, #13
10040936:	d000      	beq.n	1004093a <COMM_Event_Handler+0x1b6>
10040938:	e73f      	b.n	100407ba <COMM_Event_Handler+0x36>
1004093a:	e737      	b.n	100407ac <COMM_Event_Handler+0x28>
1004093c:	2405      	movs	r4, #5
1004093e:	e74d      	b.n	100407dc <COMM_Event_Handler+0x58>
10040940:	2407      	movs	r4, #7
10040942:	e74b      	b.n	100407dc <COMM_Event_Handler+0x58>
10040944:	2408      	movs	r4, #8
10040946:	e749      	b.n	100407dc <COMM_Event_Handler+0x58>
10040948:	2403      	movs	r4, #3
1004094a:	e747      	b.n	100407dc <COMM_Event_Handler+0x58>
1004094c:	200001a4 	.word	0x200001a4
10040950:	2000019c 	.word	0x2000019c
10040954:	10043dd8 	.word	0x10043dd8
10040958:	10043de7 	.word	0x10043de7
1004095c:	10043dff 	.word	0x10043dff
10040960:	20000198 	.word	0x20000198
10040964:	10043e16 	.word	0x10043e16
10040968:	10043e29 	.word	0x10043e29
1004096c:	20000194 	.word	0x20000194
10040970:	10043e3c 	.word	0x10043e3c
10040974:	10043e4e 	.word	0x10043e4e
10040978:	10043e6a 	.word	0x10043e6a
1004097c:	10043e74 	.word	0x10043e74
10040980:	10043e7c 	.word	0x10043e7c
10040984:	10043e8e 	.word	0x10043e8e
10040988:	10043e9a 	.word	0x10043e9a

1004098c <discountprintf>:
1004098c:	b570      	push	{r4, r5, r6, lr}
1004098e:	0005      	movs	r5, r0
10040990:	f7ff fbb8 	bl	10040104 <strlen>
10040994:	2400      	movs	r4, #0
10040996:	0006      	movs	r6, r0
10040998:	42b4      	cmp	r4, r6
1004099a:	db01      	blt.n	100409a0 <discountprintf+0x14>
1004099c:	2001      	movs	r0, #1
1004099e:	bd70      	pop	{r4, r5, r6, pc}
100409a0:	5d28      	ldrb	r0, [r5, r4]
100409a2:	f000 fa53 	bl	10040e4c <USART_WriteTx>
100409a6:	3401      	adds	r4, #1
100409a8:	e7f6      	b.n	10040998 <discountprintf+0xc>

100409aa <FIFO_Create>:
100409aa:	b510      	push	{r4, lr}
100409ac:	200c      	movs	r0, #12
100409ae:	f002 fd81 	bl	100434b4 <malloc>
100409b2:	2800      	cmp	r0, #0
100409b4:	d003      	beq.n	100409be <FIFO_Create+0x14>
100409b6:	2300      	movs	r3, #0
100409b8:	6003      	str	r3, [r0, #0]
100409ba:	6043      	str	r3, [r0, #4]
100409bc:	8103      	strh	r3, [r0, #8]
100409be:	bd10      	pop	{r4, pc}

100409c0 <FIFO_Enqueue>:
100409c0:	b513      	push	{r0, r1, r4, lr}
100409c2:	1e04      	subs	r4, r0, #0
100409c4:	9101      	str	r1, [sp, #4]
100409c6:	d101      	bne.n	100409cc <FIFO_Enqueue+0xc>
100409c8:	2000      	movs	r0, #0
100409ca:	bd16      	pop	{r1, r2, r4, pc}
100409cc:	2008      	movs	r0, #8
100409ce:	f002 fd71 	bl	100434b4 <malloc>
100409d2:	2800      	cmp	r0, #0
100409d4:	d0f8      	beq.n	100409c8 <FIFO_Enqueue+0x8>
100409d6:	9b01      	ldr	r3, [sp, #4]
100409d8:	6003      	str	r3, [r0, #0]
100409da:	2300      	movs	r3, #0
100409dc:	6043      	str	r3, [r0, #4]
100409de:	6863      	ldr	r3, [r4, #4]
100409e0:	2b00      	cmp	r3, #0
100409e2:	d006      	beq.n	100409f2 <FIFO_Enqueue+0x32>
100409e4:	6058      	str	r0, [r3, #4]
100409e6:	8923      	ldrh	r3, [r4, #8]
100409e8:	6060      	str	r0, [r4, #4]
100409ea:	3301      	adds	r3, #1
100409ec:	2001      	movs	r0, #1
100409ee:	8123      	strh	r3, [r4, #8]
100409f0:	e7eb      	b.n	100409ca <FIFO_Enqueue+0xa>
100409f2:	6020      	str	r0, [r4, #0]
100409f4:	e7f7      	b.n	100409e6 <FIFO_Enqueue+0x26>

100409f6 <FIFO_Dequeue>:
100409f6:	b5f7      	push	{r0, r1, r2, r4, r5, r6, r7, lr}
100409f8:	0004      	movs	r4, r0
100409fa:	ad01      	add	r5, sp, #4
100409fc:	2800      	cmp	r0, #0
100409fe:	d107      	bne.n	10040a10 <FIFO_Dequeue+0x1a>
10040a00:	23ff      	movs	r3, #255	@ 0xff
10040a02:	8068      	strh	r0, [r5, #2]
10040a04:	702b      	strb	r3, [r5, #0]
10040a06:	886b      	ldrh	r3, [r5, #2]
10040a08:	8828      	ldrh	r0, [r5, #0]
10040a0a:	041b      	lsls	r3, r3, #16
10040a0c:	4318      	orrs	r0, r3
10040a0e:	bdfe      	pop	{r1, r2, r3, r4, r5, r6, r7, pc}
10040a10:	6800      	ldr	r0, [r0, #0]
10040a12:	2800      	cmp	r0, #0
10040a14:	d103      	bne.n	10040a1e <FIFO_Dequeue+0x28>
10040a16:	6060      	str	r0, [r4, #4]
10040a18:	7028      	strb	r0, [r5, #0]
10040a1a:	8068      	strh	r0, [r5, #2]
10040a1c:	e7f3      	b.n	10040a06 <FIFO_Dequeue+0x10>
10040a1e:	6843      	ldr	r3, [r0, #4]
10040a20:	6023      	str	r3, [r4, #0]
10040a22:	2b00      	cmp	r3, #0
10040a24:	d100      	bne.n	10040a28 <FIFO_Dequeue+0x32>
10040a26:	6063      	str	r3, [r4, #4]
10040a28:	2700      	movs	r7, #0
10040a2a:	8846      	ldrh	r6, [r0, #2]
10040a2c:	57c7      	ldrsb	r7, [r0, r7]
10040a2e:	f002 fd4b 	bl	100434c8 <free>
10040a32:	8923      	ldrh	r3, [r4, #8]
10040a34:	702f      	strb	r7, [r5, #0]
10040a36:	3b01      	subs	r3, #1
10040a38:	8123      	strh	r3, [r4, #8]
10040a3a:	806e      	strh	r6, [r5, #2]
10040a3c:	e7e3      	b.n	10040a06 <FIFO_Dequeue+0x10>

10040a3e <FIFO_GetSize>:
10040a3e:	8900      	ldrh	r0, [r0, #8]
10040a40:	1e43      	subs	r3, r0, #1
10040a42:	4198      	sbcs	r0, r3
10040a44:	b2c0      	uxtb	r0, r0
10040a46:	4770      	bx	lr

10040a48 <GPIO_Init>:
10040a48:	b510      	push	{r4, lr}
10040a4a:	2408      	movs	r4, #8
10040a4c:	b088      	sub	sp, #32
10040a4e:	0022      	movs	r2, r4
10040a50:	2100      	movs	r1, #0
10040a52:	a806      	add	r0, sp, #24
10040a54:	f002 fe14 	bl	10043680 <memset>
10040a58:	4b12      	ldr	r3, [pc, #72]	@ (10040aa4 <GPIO_Init+0x5c>)
10040a5a:	2104      	movs	r1, #4
10040a5c:	6d1a      	ldr	r2, [r3, #80]	@ 0x50
10040a5e:	2090      	movs	r0, #144	@ 0x90
10040a60:	4322      	orrs	r2, r4
10040a62:	651a      	str	r2, [r3, #80]	@ 0x50
10040a64:	6d1a      	ldr	r2, [r3, #80]	@ 0x50
10040a66:	05c0      	lsls	r0, r0, #23
10040a68:	4022      	ands	r2, r4
10040a6a:	2400      	movs	r4, #0
10040a6c:	9202      	str	r2, [sp, #8]
10040a6e:	9a02      	ldr	r2, [sp, #8]
10040a70:	6d1a      	ldr	r2, [r3, #80]	@ 0x50
10040a72:	430a      	orrs	r2, r1
10040a74:	651a      	str	r2, [r3, #80]	@ 0x50
10040a76:	6d1b      	ldr	r3, [r3, #80]	@ 0x50
10040a78:	9404      	str	r4, [sp, #16]
10040a7a:	400b      	ands	r3, r1
10040a7c:	9301      	str	r3, [sp, #4]
10040a7e:	9b01      	ldr	r3, [sp, #4]
10040a80:	4b09      	ldr	r3, [pc, #36]	@ (10040aa8 <GPIO_Init+0x60>)
10040a82:	a903      	add	r1, sp, #12
10040a84:	9303      	str	r3, [sp, #12]
10040a86:	9405      	str	r4, [sp, #20]
10040a88:	f000 fdd5 	bl	10041636 <HAL_GPIO_Init>
10040a8c:	4b07      	ldr	r3, [pc, #28]	@ (10040aac <GPIO_Init+0x64>)
10040a8e:	4808      	ldr	r0, [pc, #32]	@ (10040ab0 <GPIO_Init+0x68>)
10040a90:	a903      	add	r1, sp, #12
10040a92:	9303      	str	r3, [sp, #12]
10040a94:	9404      	str	r4, [sp, #16]
10040a96:	9405      	str	r4, [sp, #20]
10040a98:	f000 fdcd 	bl	10041636 <HAL_GPIO_Init>
10040a9c:	2001      	movs	r0, #1
10040a9e:	b008      	add	sp, #32
10040aa0:	bd10      	pop	{r4, pc}
10040aa2:	46c0      	nop			@ (mov r8, r8)
10040aa4:	48400000 	.word	0x48400000
10040aa8:	0000040c 	.word	0x0000040c
10040aac:	00003010 	.word	0x00003010
10040ab0:	48100000 	.word	0x48100000

10040ab4 <GPIO_ReadButtons>:
10040ab4:	2090      	movs	r0, #144	@ 0x90
10040ab6:	b570      	push	{r4, r5, r6, lr}
10040ab8:	2101      	movs	r1, #1
10040aba:	05c0      	lsls	r0, r0, #23
10040abc:	f000 fe56 	bl	1004176c <HAL_GPIO_ReadPin>
10040ac0:	4d0a      	ldr	r5, [pc, #40]	@ (10040aec <GPIO_ReadButtons+0x38>)
10040ac2:	0006      	movs	r6, r0
10040ac4:	2120      	movs	r1, #32
10040ac6:	0028      	movs	r0, r5
10040ac8:	f000 fe50 	bl	1004176c <HAL_GPIO_ReadPin>
10040acc:	4272      	negs	r2, r6
10040ace:	4156      	adcs	r6, r2
10040ad0:	4244      	negs	r4, r0
10040ad2:	4144      	adcs	r4, r0
10040ad4:	2180      	movs	r1, #128	@ 0x80
10040ad6:	00b3      	lsls	r3, r6, #2
10040ad8:	0028      	movs	r0, r5
10040ada:	01c9      	lsls	r1, r1, #7
10040adc:	0064      	lsls	r4, r4, #1
10040ade:	431c      	orrs	r4, r3
10040ae0:	f000 fe44 	bl	1004176c <HAL_GPIO_ReadPin>
10040ae4:	4243      	negs	r3, r0
10040ae6:	4158      	adcs	r0, r3
10040ae8:	4320      	orrs	r0, r4
10040aea:	bd70      	pop	{r4, r5, r6, pc}
10040aec:	48100000 	.word	0x48100000

10040af0 <GPIO_Event_Init>:
10040af0:	b570      	push	{r4, r5, r6, lr}
10040af2:	2400      	movs	r4, #0
10040af4:	0005      	movs	r5, r0
10040af6:	4b0e      	ldr	r3, [pc, #56]	@ (10040b30 <GPIO_Event_Init+0x40>)
10040af8:	0020      	movs	r0, r4
10040afa:	701c      	strb	r4, [r3, #0]
10040afc:	f000 fb9e 	bl	1004123c <BSP_LED_Init>
10040b00:	2001      	movs	r0, #1
10040b02:	f000 fb9b 	bl	1004123c <BSP_LED_Init>
10040b06:	2002      	movs	r0, #2
10040b08:	f000 fb98 	bl	1004123c <BSP_LED_Init>
10040b0c:	0021      	movs	r1, r4
10040b0e:	0020      	movs	r0, r4
10040b10:	f000 fbe0 	bl	100412d4 <BSP_PB_Init>
10040b14:	0021      	movs	r1, r4
10040b16:	2001      	movs	r0, #1
10040b18:	f000 fbdc 	bl	100412d4 <BSP_PB_Init>
10040b1c:	0021      	movs	r1, r4
10040b1e:	2002      	movs	r0, #2
10040b20:	f000 fbd8 	bl	100412d4 <BSP_PB_Init>
10040b24:	4b03      	ldr	r3, [pc, #12]	@ (10040b34 <GPIO_Event_Init+0x44>)
10040b26:	601d      	str	r5, [r3, #0]
10040b28:	f7ff ff8e 	bl	10040a48 <GPIO_Init>
10040b2c:	b2c0      	uxtb	r0, r0
10040b2e:	bd70      	pop	{r4, r5, r6, pc}
10040b30:	200001ac 	.word	0x200001ac
10040b34:	200001a8 	.word	0x200001a8

10040b38 <GPIO_Event_Updater>:
10040b38:	b537      	push	{r0, r1, r2, r4, r5, lr}
10040b3a:	f7ff ffbb 	bl	10040ab4 <GPIO_ReadButtons>
10040b3e:	2400      	movs	r4, #0
10040b40:	4a0c      	ldr	r2, [pc, #48]	@ (10040b74 <GPIO_Event_Updater+0x3c>)
10040b42:	0025      	movs	r5, r4
10040b44:	7813      	ldrb	r3, [r2, #0]
10040b46:	4283      	cmp	r3, r0
10040b48:	d00e      	beq.n	10040b68 <GPIO_Event_Updater+0x30>
10040b4a:	4043      	eors	r3, r0
10040b4c:	0201      	lsls	r1, r0, #8
10040b4e:	b2db      	uxtb	r3, r3
10040b50:	430b      	orrs	r3, r1
10040b52:	b29c      	uxth	r4, r3
10040b54:	4b08      	ldr	r3, [pc, #32]	@ (10040b78 <GPIO_Event_Updater+0x40>)
10040b56:	7010      	strb	r0, [r2, #0]
10040b58:	6818      	ldr	r0, [r3, #0]
10040b5a:	466b      	mov	r3, sp
10040b5c:	3504      	adds	r5, #4
10040b5e:	701d      	strb	r5, [r3, #0]
10040b60:	805c      	strh	r4, [r3, #2]
10040b62:	9900      	ldr	r1, [sp, #0]
10040b64:	f7ff ff2c 	bl	100409c0 <FIFO_Enqueue>
10040b68:	ab01      	add	r3, sp, #4
10040b6a:	701d      	strb	r5, [r3, #0]
10040b6c:	8818      	ldrh	r0, [r3, #0]
10040b6e:	0424      	lsls	r4, r4, #16
10040b70:	4320      	orrs	r0, r4
10040b72:	bd3e      	pop	{r1, r2, r3, r4, r5, pc}
10040b74:	200001ac 	.word	0x200001ac
10040b78:	200001a8 	.word	0x200001a8

10040b7c <GPIO_Event_Handler>:
10040b7c:	b537      	push	{r0, r1, r2, r4, r5, lr}
10040b7e:	0c04      	lsrs	r4, r0, #16
10040b80:	b240      	sxtb	r0, r0
10040b82:	2804      	cmp	r0, #4
10040b84:	d110      	bne.n	10040ba8 <GPIO_Event_Handler+0x2c>
10040b86:	2501      	movs	r5, #1
10040b88:	422c      	tst	r4, r5
10040b8a:	d002      	beq.n	10040b92 <GPIO_Event_Handler+0x16>
10040b8c:	2000      	movs	r0, #0
10040b8e:	f000 fb91 	bl	100412b4 <BSP_LED_Toggle>
10040b92:	0863      	lsrs	r3, r4, #1
10040b94:	422b      	tst	r3, r5
10040b96:	d002      	beq.n	10040b9e <GPIO_Event_Handler+0x22>
10040b98:	2001      	movs	r0, #1
10040b9a:	f000 fb8b 	bl	100412b4 <BSP_LED_Toggle>
10040b9e:	0764      	lsls	r4, r4, #29
10040ba0:	d502      	bpl.n	10040ba8 <GPIO_Event_Handler+0x2c>
10040ba2:	2002      	movs	r0, #2
10040ba4:	f000 fb86 	bl	100412b4 <BSP_LED_Toggle>
10040ba8:	2001      	movs	r0, #1
10040baa:	bd3e      	pop	{r1, r2, r3, r4, r5, pc}

10040bac <I2C1_IRQHandler>:
10040bac:	4806      	ldr	r0, [pc, #24]	@ (10040bc8 <I2C1_IRQHandler+0x1c>)
10040bae:	b510      	push	{r4, lr}
10040bb0:	6803      	ldr	r3, [r0, #0]
10040bb2:	699a      	ldr	r2, [r3, #24]
10040bb4:	23e0      	movs	r3, #224	@ 0xe0
10040bb6:	00db      	lsls	r3, r3, #3
10040bb8:	421a      	tst	r2, r3
10040bba:	d002      	beq.n	10040bc2 <I2C1_IRQHandler+0x16>
10040bbc:	f000 ff90 	bl	10041ae0 <HAL_I2C_ER_IRQHandler>
10040bc0:	bd10      	pop	{r4, pc}
10040bc2:	f000 fe19 	bl	100417f8 <HAL_I2C_EV_IRQHandler>
10040bc6:	e7fb      	b.n	10040bc0 <I2C1_IRQHandler+0x14>
10040bc8:	200001b0 	.word	0x200001b0

10040bcc <main>:
10040bcc:	b5f7      	push	{r0, r1, r2, r4, r5, r6, r7, lr}
10040bce:	f7ff fd77 	bl	100406c0 <BOARD_Init>
10040bd2:	2801      	cmp	r0, #1
10040bd4:	d001      	beq.n	10040bda <main+0xe>
10040bd6:	f7ff fd81 	bl	100406dc <BOARD_CrashHandler>
10040bda:	f000 f8b3 	bl	10040d44 <UART_Init>
10040bde:	2801      	cmp	r0, #1
10040be0:	d001      	beq.n	10040be6 <main+0x1a>
10040be2:	f7ff fd7b 	bl	100406dc <BOARD_CrashHandler>
10040be6:	f7ff fee0 	bl	100409aa <FIFO_Create>
10040bea:	4f1c      	ldr	r7, [pc, #112]	@ (10040c5c <main+0x90>)
10040bec:	4c1c      	ldr	r4, [pc, #112]	@ (10040c60 <main+0x94>)
10040bee:	6038      	str	r0, [r7, #0]
10040bf0:	6823      	ldr	r3, [r4, #0]
10040bf2:	4798      	blx	r3
10040bf4:	f7ff fed9 	bl	100409aa <FIFO_Create>
10040bf8:	6863      	ldr	r3, [r4, #4]
10040bfa:	6078      	str	r0, [r7, #4]
10040bfc:	4798      	blx	r3
10040bfe:	4c19      	ldr	r4, [pc, #100]	@ (10040c64 <main+0x98>)
10040c00:	6823      	ldr	r3, [r4, #0]
10040c02:	4798      	blx	r3
10040c04:	b240      	sxtb	r0, r0
10040c06:	3001      	adds	r0, #1
10040c08:	d101      	bne.n	10040c0e <main+0x42>
10040c0a:	f7ff fd67 	bl	100406dc <BOARD_CrashHandler>
10040c0e:	6863      	ldr	r3, [r4, #4]
10040c10:	4798      	blx	r3
10040c12:	9001      	str	r0, [sp, #4]
10040c14:	b240      	sxtb	r0, r0
10040c16:	3001      	adds	r0, #1
10040c18:	d101      	bne.n	10040c1e <main+0x52>
10040c1a:	f7ff fd5f 	bl	100406dc <BOARD_CrashHandler>
10040c1e:	003c      	movs	r4, r7
10040c20:	2600      	movs	r6, #0
10040c22:	2501      	movs	r5, #1
10040c24:	e000      	b.n	10040c28 <main+0x5c>
10040c26:	2604      	movs	r6, #4
10040c28:	6820      	ldr	r0, [r4, #0]
10040c2a:	f7ff fee4 	bl	100409f6 <FIFO_Dequeue>
10040c2e:	9000      	str	r0, [sp, #0]
10040c30:	6820      	ldr	r0, [r4, #0]
10040c32:	f7ff ff04 	bl	10040a3e <FIFO_GetSize>
10040c36:	4243      	negs	r3, r0
10040c38:	4158      	adcs	r0, r3
10040c3a:	466b      	mov	r3, sp
10040c3c:	781b      	ldrb	r3, [r3, #0]
10040c3e:	4240      	negs	r0, r0
10040c40:	b25b      	sxtb	r3, r3
10040c42:	4005      	ands	r5, r0
10040c44:	2b00      	cmp	r3, #0
10040c46:	d003      	beq.n	10040c50 <main+0x84>
10040c48:	4b07      	ldr	r3, [pc, #28]	@ (10040c68 <main+0x9c>)
10040c4a:	9800      	ldr	r0, [sp, #0]
10040c4c:	599b      	ldr	r3, [r3, r6]
10040c4e:	4798      	blx	r3
10040c50:	3404      	adds	r4, #4
10040c52:	2e04      	cmp	r6, #4
10040c54:	d1e7      	bne.n	10040c26 <main+0x5a>
10040c56:	2d00      	cmp	r5, #0
10040c58:	d0e1      	beq.n	10040c1e <main+0x52>
10040c5a:	e7d0      	b.n	10040bfe <main+0x32>
10040c5c:	20000204 	.word	0x20000204
10040c60:	200009f8 	.word	0x200009f8
10040c64:	200009f0 	.word	0x200009f0
10040c68:	200009e8 	.word	0x200009e8

10040c6c <TIM2_IRQHandler>:
10040c6c:	b510      	push	{r4, lr}
10040c6e:	4a04      	ldr	r2, [pc, #16]	@ (10040c80 <TIM2_IRQHandler+0x14>)
10040c70:	4804      	ldr	r0, [pc, #16]	@ (10040c84 <TIM2_IRQHandler+0x18>)
10040c72:	6813      	ldr	r3, [r2, #0]
10040c74:	3301      	adds	r3, #1
10040c76:	6013      	str	r3, [r2, #0]
10040c78:	f001 fe3b 	bl	100428f2 <HAL_TIM_IRQHandler>
10040c7c:	bd10      	pop	{r4, pc}
10040c7e:	46c0      	nop			@ (mov r8, r8)
10040c80:	2000020c 	.word	0x2000020c
10040c84:	20000210 	.word	0x20000210

10040c88 <LPUART1_IRQHandler>:
10040c88:	b510      	push	{r4, lr}
10040c8a:	4802      	ldr	r0, [pc, #8]	@ (10040c94 <LPUART1_IRQHandler+0xc>)
10040c8c:	f001 ff0e 	bl	10042aac <HAL_UART_IRQHandler>
10040c90:	bd10      	pop	{r4, pc}
10040c92:	46c0      	nop			@ (mov r8, r8)
10040c94:	200006cc 	.word	0x200006cc

10040c98 <USART1_IRQHandler>:
10040c98:	b5f8      	push	{r3, r4, r5, r6, r7, lr}
10040c9a:	4e24      	ldr	r6, [pc, #144]	@ (10040d2c <USART1_IRQHandler+0x94>)
10040c9c:	6834      	ldr	r4, [r6, #0]
10040c9e:	69e3      	ldr	r3, [r4, #28]
10040ca0:	069b      	lsls	r3, r3, #26
10040ca2:	d517      	bpl.n	10040cd4 <USART1_IRQHandler+0x3c>
10040ca4:	4d22      	ldr	r5, [pc, #136]	@ (10040d30 <USART1_IRQHandler+0x98>)
10040ca6:	4b23      	ldr	r3, [pc, #140]	@ (10040d34 <USART1_IRQHandler+0x9c>)
10040ca8:	5ceb      	ldrb	r3, [r5, r3]
10040caa:	2b00      	cmp	r3, #0
10040cac:	d139      	bne.n	10040d22 <USART1_IRQHandler+0x8a>
10040cae:	4f22      	ldr	r7, [pc, #136]	@ (10040d38 <USART1_IRQHandler+0xa0>)
10040cb0:	6a63      	ldr	r3, [r4, #36]	@ 0x24
10040cb2:	5be8      	ldrh	r0, [r5, r7]
10040cb4:	4921      	ldr	r1, [pc, #132]	@ (10040d3c <USART1_IRQHandler+0xa4>)
10040cb6:	542b      	strb	r3, [r5, r0]
10040cb8:	3001      	adds	r0, #1
10040cba:	b280      	uxth	r0, r0
10040cbc:	f7ff fac4 	bl	10040248 <__aeabi_uidivmod>
10040cc0:	2381      	movs	r3, #129	@ 0x81
10040cc2:	b289      	uxth	r1, r1
10040cc4:	53e9      	strh	r1, [r5, r7]
10040cc6:	009b      	lsls	r3, r3, #2
10040cc8:	5aeb      	ldrh	r3, [r5, r3]
10040cca:	428b      	cmp	r3, r1
10040ccc:	d102      	bne.n	10040cd4 <USART1_IRQHandler+0x3c>
10040cce:	2301      	movs	r3, #1
10040cd0:	4a18      	ldr	r2, [pc, #96]	@ (10040d34 <USART1_IRQHandler+0x9c>)
10040cd2:	54ab      	strb	r3, [r5, r2]
10040cd4:	2340      	movs	r3, #64	@ 0x40
10040cd6:	69e2      	ldr	r2, [r4, #28]
10040cd8:	421a      	tst	r2, r3
10040cda:	d01b      	beq.n	10040d14 <USART1_IRQHandler+0x7c>
10040cdc:	2281      	movs	r2, #129	@ 0x81
10040cde:	4d18      	ldr	r5, [pc, #96]	@ (10040d40 <USART1_IRQHandler+0xa8>)
10040ce0:	0092      	lsls	r2, r2, #2
10040ce2:	5aa8      	ldrh	r0, [r5, r2]
10040ce4:	4a13      	ldr	r2, [pc, #76]	@ (10040d34 <USART1_IRQHandler+0x9c>)
10040ce6:	5caf      	ldrb	r7, [r5, r2]
10040ce8:	4a13      	ldr	r2, [pc, #76]	@ (10040d38 <USART1_IRQHandler+0xa0>)
10040cea:	5aaa      	ldrh	r2, [r5, r2]
10040cec:	4282      	cmp	r2, r0
10040cee:	d101      	bne.n	10040cf4 <USART1_IRQHandler+0x5c>
10040cf0:	2f00      	cmp	r7, #0
10040cf2:	d018      	beq.n	10040d26 <USART1_IRQHandler+0x8e>
10040cf4:	5c2b      	ldrb	r3, [r5, r0]
10040cf6:	3001      	adds	r0, #1
10040cf8:	62a3      	str	r3, [r4, #40]	@ 0x28
10040cfa:	4910      	ldr	r1, [pc, #64]	@ (10040d3c <USART1_IRQHandler+0xa4>)
10040cfc:	b280      	uxth	r0, r0
10040cfe:	f7ff faa3 	bl	10040248 <__aeabi_uidivmod>
10040d02:	2381      	movs	r3, #129	@ 0x81
10040d04:	009b      	lsls	r3, r3, #2
10040d06:	52e9      	strh	r1, [r5, r3]
10040d08:	2f00      	cmp	r7, #0
10040d0a:	d003      	beq.n	10040d14 <USART1_IRQHandler+0x7c>
10040d0c:	2200      	movs	r2, #0
10040d0e:	4b08      	ldr	r3, [pc, #32]	@ (10040d30 <USART1_IRQHandler+0x98>)
10040d10:	4908      	ldr	r1, [pc, #32]	@ (10040d34 <USART1_IRQHandler+0x9c>)
10040d12:	545a      	strb	r2, [r3, r1]
10040d14:	2002      	movs	r0, #2
10040d16:	f000 facd 	bl	100412b4 <BSP_LED_Toggle>
10040d1a:	0030      	movs	r0, r6
10040d1c:	f002 fad2 	bl	100432c4 <HAL_USART_IRQHandler>
10040d20:	bdf8      	pop	{r3, r4, r5, r6, r7, pc}
10040d22:	6a63      	ldr	r3, [r4, #36]	@ 0x24
10040d24:	e7d6      	b.n	10040cd4 <USART1_IRQHandler+0x3c>
10040d26:	6223      	str	r3, [r4, #32]
10040d28:	e7f4      	b.n	10040d14 <USART1_IRQHandler+0x7c>
10040d2a:	46c0      	nop			@ (mov r8, r8)
10040d2c:	2000066c 	.word	0x2000066c
10040d30:	2000024c 	.word	0x2000024c
10040d34:	00000206 	.word	0x00000206
10040d38:	00000202 	.word	0x00000202
10040d3c:	00000201 	.word	0x00000201
10040d40:	20000454 	.word	0x20000454

10040d44 <UART_Init>:
10040d44:	b570      	push	{r4, r5, r6, lr}
10040d46:	4b27      	ldr	r3, [pc, #156]	@ (10040de4 <UART_Init+0xa0>)
10040d48:	4c27      	ldr	r4, [pc, #156]	@ (10040de8 <UART_Init+0xa4>)
10040d4a:	2596      	movs	r5, #150	@ 0x96
10040d4c:	6023      	str	r3, [r4, #0]
10040d4e:	2300      	movs	r3, #0
10040d50:	60a3      	str	r3, [r4, #8]
10040d52:	60e3      	str	r3, [r4, #12]
10040d54:	6123      	str	r3, [r4, #16]
10040d56:	61a3      	str	r3, [r4, #24]
10040d58:	6223      	str	r3, [r4, #32]
10040d5a:	6263      	str	r3, [r4, #36]	@ 0x24
10040d5c:	62a3      	str	r3, [r4, #40]	@ 0x28
10040d5e:	2380      	movs	r3, #128	@ 0x80
10040d60:	220c      	movs	r2, #12
10040d62:	059b      	lsls	r3, r3, #22
10040d64:	0020      	movs	r0, r4
10040d66:	01ad      	lsls	r5, r5, #6
10040d68:	6065      	str	r5, [r4, #4]
10040d6a:	6162      	str	r2, [r4, #20]
10040d6c:	6663      	str	r3, [r4, #100]	@ 0x64
10040d6e:	f002 f9f1 	bl	10043154 <HAL_UART_Init>
10040d72:	1e01      	subs	r1, r0, #0
10040d74:	d001      	beq.n	10040d7a <UART_Init+0x36>
10040d76:	2000      	movs	r0, #0
10040d78:	bd70      	pop	{r4, r5, r6, pc}
10040d7a:	0020      	movs	r0, r4
10040d7c:	f002 fa49 	bl	10043212 <HAL_UARTEx_SetTxFifoThreshold>
10040d80:	1e01      	subs	r1, r0, #0
10040d82:	d1f8      	bne.n	10040d76 <UART_Init+0x32>
10040d84:	0020      	movs	r0, r4
10040d86:	f002 fa65 	bl	10043254 <HAL_UARTEx_SetRxFifoThreshold>
10040d8a:	2800      	cmp	r0, #0
10040d8c:	d1f3      	bne.n	10040d76 <UART_Init+0x32>
10040d8e:	4917      	ldr	r1, [pc, #92]	@ (10040dec <UART_Init+0xa8>)
10040d90:	4c17      	ldr	r4, [pc, #92]	@ (10040df0 <UART_Init+0xac>)
10040d92:	4b18      	ldr	r3, [pc, #96]	@ (10040df4 <UART_Init+0xb0>)
10040d94:	600d      	str	r5, [r1, #0]
10040d96:	6023      	str	r3, [r4, #0]
10040d98:	6048      	str	r0, [r1, #4]
10040d9a:	6088      	str	r0, [r1, #8]
10040d9c:	8188      	strh	r0, [r1, #12]
10040d9e:	f000 fb13 	bl	100413c8 <BSP_COM_Init>
10040da2:	2800      	cmp	r0, #0
10040da4:	d001      	beq.n	10040daa <UART_Init+0x66>
10040da6:	f7ff fc9b 	bl	100406e0 <Error_Handler>
10040daa:	2201      	movs	r2, #1
10040dac:	2008      	movs	r0, #8
10040dae:	0011      	movs	r1, r2
10040db0:	f000 fba8 	bl	10041504 <HAL_NVIC_SetPriority>
10040db4:	2008      	movs	r0, #8
10040db6:	f000 fbcf 	bl	10041558 <HAL_NVIC_EnableIRQ>
10040dba:	2360      	movs	r3, #96	@ 0x60
10040dbc:	6822      	ldr	r2, [r4, #0]
10040dbe:	2481      	movs	r4, #129	@ 0x81
10040dc0:	6811      	ldr	r1, [r2, #0]
10040dc2:	480d      	ldr	r0, [pc, #52]	@ (10040df8 <UART_Init+0xb4>)
10040dc4:	430b      	orrs	r3, r1
10040dc6:	6013      	str	r3, [r2, #0]
10040dc8:	2300      	movs	r3, #0
10040dca:	4a0c      	ldr	r2, [pc, #48]	@ (10040dfc <UART_Init+0xb8>)
10040dcc:	490c      	ldr	r1, [pc, #48]	@ (10040e00 <UART_Init+0xbc>)
10040dce:	00a4      	lsls	r4, r4, #2
10040dd0:	5213      	strh	r3, [r2, r0]
10040dd2:	5313      	strh	r3, [r2, r4]
10040dd4:	5453      	strb	r3, [r2, r1]
10040dd6:	4a0b      	ldr	r2, [pc, #44]	@ (10040e04 <UART_Init+0xc0>)
10040dd8:	5213      	strh	r3, [r2, r0]
10040dda:	5313      	strh	r3, [r2, r4]
10040ddc:	2001      	movs	r0, #1
10040dde:	5453      	strb	r3, [r2, r1]
10040de0:	e7ca      	b.n	10040d78 <UART_Init+0x34>
10040de2:	46c0      	nop			@ (mov r8, r8)
10040de4:	41005000 	.word	0x41005000
10040de8:	200006cc 	.word	0x200006cc
10040dec:	2000065c 	.word	0x2000065c
10040df0:	2000066c 	.word	0x2000066c
10040df4:	41004000 	.word	0x41004000
10040df8:	00000202 	.word	0x00000202
10040dfc:	20000454 	.word	0x20000454
10040e00:	00000206 	.word	0x00000206
10040e04:	2000024c 	.word	0x2000024c

10040e08 <USART_ReadRx>:
10040e08:	2381      	movs	r3, #129	@ 0x81
10040e0a:	b570      	push	{r4, r5, r6, lr}
10040e0c:	4c0b      	ldr	r4, [pc, #44]	@ (10040e3c <USART_ReadRx+0x34>)
10040e0e:	009b      	lsls	r3, r3, #2
10040e10:	5ae0      	ldrh	r0, [r4, r3]
10040e12:	4b0b      	ldr	r3, [pc, #44]	@ (10040e40 <USART_ReadRx+0x38>)
10040e14:	5ae3      	ldrh	r3, [r4, r3]
10040e16:	4283      	cmp	r3, r0
10040e18:	d104      	bne.n	10040e24 <USART_ReadRx+0x1c>
10040e1a:	4b0a      	ldr	r3, [pc, #40]	@ (10040e44 <USART_ReadRx+0x3c>)
10040e1c:	2525      	movs	r5, #37	@ 0x25
10040e1e:	5ce3      	ldrb	r3, [r4, r3]
10040e20:	2b00      	cmp	r3, #0
10040e22:	d008      	beq.n	10040e36 <USART_ReadRx+0x2e>
10040e24:	5c25      	ldrb	r5, [r4, r0]
10040e26:	3001      	adds	r0, #1
10040e28:	4907      	ldr	r1, [pc, #28]	@ (10040e48 <USART_ReadRx+0x40>)
10040e2a:	b280      	uxth	r0, r0
10040e2c:	f7ff fa0c 	bl	10040248 <__aeabi_uidivmod>
10040e30:	2381      	movs	r3, #129	@ 0x81
10040e32:	009b      	lsls	r3, r3, #2
10040e34:	52e1      	strh	r1, [r4, r3]
10040e36:	0028      	movs	r0, r5
10040e38:	bd70      	pop	{r4, r5, r6, pc}
10040e3a:	46c0      	nop			@ (mov r8, r8)
10040e3c:	2000024c 	.word	0x2000024c
10040e40:	00000202 	.word	0x00000202
10040e44:	00000206 	.word	0x00000206
10040e48:	00000201 	.word	0x00000201

10040e4c <USART_WriteTx>:
10040e4c:	b570      	push	{r4, r5, r6, lr}
10040e4e:	4b0f      	ldr	r3, [pc, #60]	@ (10040e8c <USART_WriteTx+0x40>)
10040e50:	4c0f      	ldr	r4, [pc, #60]	@ (10040e90 <USART_WriteTx+0x44>)
10040e52:	0002      	movs	r2, r0
10040e54:	5ce3      	ldrb	r3, [r4, r3]
10040e56:	2025      	movs	r0, #37	@ 0x25
10040e58:	2b00      	cmp	r3, #0
10040e5a:	d10d      	bne.n	10040e78 <USART_WriteTx+0x2c>
10040e5c:	2181      	movs	r1, #129	@ 0x81
10040e5e:	4d0d      	ldr	r5, [pc, #52]	@ (10040e94 <USART_WriteTx+0x48>)
10040e60:	0089      	lsls	r1, r1, #2
10040e62:	5b63      	ldrh	r3, [r4, r5]
10040e64:	5a61      	ldrh	r1, [r4, r1]
10040e66:	4299      	cmp	r1, r3
10040e68:	d107      	bne.n	10040e7a <USART_WriteTx+0x2e>
10040e6a:	490b      	ldr	r1, [pc, #44]	@ (10040e98 <USART_WriteTx+0x4c>)
10040e6c:	6809      	ldr	r1, [r1, #0]
10040e6e:	69c8      	ldr	r0, [r1, #28]
10040e70:	0600      	lsls	r0, r0, #24
10040e72:	d502      	bpl.n	10040e7a <USART_WriteTx+0x2e>
10040e74:	628a      	str	r2, [r1, #40]	@ 0x28
10040e76:	2000      	movs	r0, #0
10040e78:	bd70      	pop	{r4, r5, r6, pc}
10040e7a:	54e2      	strb	r2, [r4, r3]
10040e7c:	3301      	adds	r3, #1
10040e7e:	4907      	ldr	r1, [pc, #28]	@ (10040e9c <USART_WriteTx+0x50>)
10040e80:	b298      	uxth	r0, r3
10040e82:	f7ff f9e1 	bl	10040248 <__aeabi_uidivmod>
10040e86:	5361      	strh	r1, [r4, r5]
10040e88:	e7f5      	b.n	10040e76 <USART_WriteTx+0x2a>
10040e8a:	46c0      	nop			@ (mov r8, r8)
10040e8c:	00000206 	.word	0x00000206
10040e90:	20000454 	.word	0x20000454
10040e94:	00000202 	.word	0x00000202
10040e98:	2000066c 	.word	0x2000066c
10040e9c:	00000201 	.word	0x00000201

10040ea0 <USART_TxEmpty>:
10040ea0:	4b06      	ldr	r3, [pc, #24]	@ (10040ebc <USART_TxEmpty+0x1c>)
10040ea2:	4a07      	ldr	r2, [pc, #28]	@ (10040ec0 <USART_TxEmpty+0x20>)
10040ea4:	2000      	movs	r0, #0
10040ea6:	5a99      	ldrh	r1, [r3, r2]
10040ea8:	3202      	adds	r2, #2
10040eaa:	5a9a      	ldrh	r2, [r3, r2]
10040eac:	4291      	cmp	r1, r2
10040eae:	d103      	bne.n	10040eb8 <USART_TxEmpty+0x18>
10040eb0:	4a04      	ldr	r2, [pc, #16]	@ (10040ec4 <USART_TxEmpty+0x24>)
10040eb2:	3001      	adds	r0, #1
10040eb4:	5c9b      	ldrb	r3, [r3, r2]
10040eb6:	4058      	eors	r0, r3
10040eb8:	b2c0      	uxtb	r0, r0
10040eba:	4770      	bx	lr
10040ebc:	20000454 	.word	0x20000454
10040ec0:	00000202 	.word	0x00000202
10040ec4:	00000206 	.word	0x00000206

10040ec8 <LL_PWR_SetNoPullB>:
10040ec8:	4b03      	ldr	r3, [pc, #12]	@ (10040ed8 <LL_PWR_SetNoPullB+0x10>)
10040eca:	6a9a      	ldr	r2, [r3, #40]	@ 0x28
10040ecc:	4382      	bics	r2, r0
10040ece:	629a      	str	r2, [r3, #40]	@ 0x28
10040ed0:	6ada      	ldr	r2, [r3, #44]	@ 0x2c
10040ed2:	4382      	bics	r2, r0
10040ed4:	62da      	str	r2, [r3, #44]	@ 0x2c
10040ed6:	4770      	bx	lr
10040ed8:	48500000 	.word	0x48500000

10040edc <LL_AHB1_GRP1_EnableClock>:
10040edc:	4b05      	ldr	r3, [pc, #20]	@ (10040ef4 <LL_AHB1_GRP1_EnableClock+0x18>)
10040ede:	b082      	sub	sp, #8
10040ee0:	6d1a      	ldr	r2, [r3, #80]	@ 0x50
10040ee2:	4302      	orrs	r2, r0
10040ee4:	651a      	str	r2, [r3, #80]	@ 0x50
10040ee6:	6d1b      	ldr	r3, [r3, #80]	@ 0x50
10040ee8:	4018      	ands	r0, r3
10040eea:	9001      	str	r0, [sp, #4]
10040eec:	9b01      	ldr	r3, [sp, #4]
10040eee:	b002      	add	sp, #8
10040ef0:	4770      	bx	lr
10040ef2:	46c0      	nop			@ (mov r8, r8)
10040ef4:	48400000 	.word	0x48400000

10040ef8 <HAL_MspInit>:
10040ef8:	2180      	movs	r1, #128	@ 0x80
10040efa:	4b06      	ldr	r3, [pc, #24]	@ (10040f14 <HAL_MspInit+0x1c>)
10040efc:	0049      	lsls	r1, r1, #1
10040efe:	6d5a      	ldr	r2, [r3, #84]	@ 0x54
10040f00:	b082      	sub	sp, #8
10040f02:	430a      	orrs	r2, r1
10040f04:	655a      	str	r2, [r3, #84]	@ 0x54
10040f06:	6d5b      	ldr	r3, [r3, #84]	@ 0x54
10040f08:	400b      	ands	r3, r1
10040f0a:	9301      	str	r3, [sp, #4]
10040f0c:	9b01      	ldr	r3, [sp, #4]
10040f0e:	b002      	add	sp, #8
10040f10:	4770      	bx	lr
10040f12:	46c0      	nop			@ (mov r8, r8)
10040f14:	48400000 	.word	0x48400000

10040f18 <HAL_UART_MspInit>:
10040f18:	b570      	push	{r4, r5, r6, lr}
10040f1a:	0004      	movs	r4, r0
10040f1c:	b08c      	sub	sp, #48	@ 0x30
10040f1e:	2214      	movs	r2, #20
10040f20:	2100      	movs	r1, #0
10040f22:	a801      	add	r0, sp, #4
10040f24:	f002 fbac 	bl	10043680 <memset>
10040f28:	2218      	movs	r2, #24
10040f2a:	2100      	movs	r1, #0
10040f2c:	a806      	add	r0, sp, #24
10040f2e:	f002 fba7 	bl	10043680 <memset>
10040f32:	4b1f      	ldr	r3, [pc, #124]	@ (10040fb0 <HAL_UART_MspInit+0x98>)
10040f34:	6822      	ldr	r2, [r4, #0]
10040f36:	429a      	cmp	r2, r3
10040f38:	d138      	bne.n	10040fac <HAL_UART_MspInit+0x94>
10040f3a:	2310      	movs	r3, #16
10040f3c:	a806      	add	r0, sp, #24
10040f3e:	9306      	str	r3, [sp, #24]
10040f40:	f001 fc1c 	bl	1004277c <HAL_RCCEx_PeriphCLKConfig>
10040f44:	2800      	cmp	r0, #0
10040f46:	d001      	beq.n	10040f4c <HAL_UART_MspInit+0x34>
10040f48:	f7ff fbca 	bl	100406e0 <Error_Handler>
10040f4c:	2180      	movs	r1, #128	@ 0x80
10040f4e:	4b19      	ldr	r3, [pc, #100]	@ (10040fb4 <HAL_UART_MspInit+0x9c>)
10040f50:	0049      	lsls	r1, r1, #1
10040f52:	6d9a      	ldr	r2, [r3, #88]	@ 0x58
10040f54:	2008      	movs	r0, #8
10040f56:	430a      	orrs	r2, r1
10040f58:	659a      	str	r2, [r3, #88]	@ 0x58
10040f5a:	6d9b      	ldr	r3, [r3, #88]	@ 0x58
10040f5c:	2400      	movs	r4, #0
10040f5e:	400b      	ands	r3, r1
10040f60:	9300      	str	r3, [sp, #0]
10040f62:	2602      	movs	r6, #2
10040f64:	2501      	movs	r5, #1
10040f66:	9b00      	ldr	r3, [sp, #0]
10040f68:	f7ff ffb8 	bl	10040edc <LL_AHB1_GRP1_EnableClock>
10040f6c:	2308      	movs	r3, #8
10040f6e:	4812      	ldr	r0, [pc, #72]	@ (10040fb8 <HAL_UART_MspInit+0xa0>)
10040f70:	a901      	add	r1, sp, #4
10040f72:	9301      	str	r3, [sp, #4]
10040f74:	9602      	str	r6, [sp, #8]
10040f76:	9403      	str	r4, [sp, #12]
10040f78:	9404      	str	r4, [sp, #16]
10040f7a:	9505      	str	r5, [sp, #20]
10040f7c:	f000 fb5b 	bl	10041636 <HAL_GPIO_Init>
10040f80:	2380      	movs	r3, #128	@ 0x80
10040f82:	a901      	add	r1, sp, #4
10040f84:	480c      	ldr	r0, [pc, #48]	@ (10040fb8 <HAL_UART_MspInit+0xa0>)
10040f86:	9301      	str	r3, [sp, #4]
10040f88:	3b7d      	subs	r3, #125	@ 0x7d
10040f8a:	9305      	str	r3, [sp, #20]
10040f8c:	9602      	str	r6, [sp, #8]
10040f8e:	9403      	str	r4, [sp, #12]
10040f90:	9404      	str	r4, [sp, #16]
10040f92:	f000 fb50 	bl	10041636 <HAL_GPIO_Init>
10040f96:	2088      	movs	r0, #136	@ 0x88
10040f98:	f7ff ff96 	bl	10040ec8 <LL_PWR_SetNoPullB>
10040f9c:	2009      	movs	r0, #9
10040f9e:	0022      	movs	r2, r4
10040fa0:	0029      	movs	r1, r5
10040fa2:	f000 faaf 	bl	10041504 <HAL_NVIC_SetPriority>
10040fa6:	2009      	movs	r0, #9
10040fa8:	f000 fad6 	bl	10041558 <HAL_NVIC_EnableIRQ>
10040fac:	b00c      	add	sp, #48	@ 0x30
10040fae:	bd70      	pop	{r4, r5, r6, pc}
10040fb0:	41005000 	.word	0x41005000
10040fb4:	48400000 	.word	0x48400000
10040fb8:	48100000 	.word	0x48100000

10040fbc <NMI_Handler>:
10040fbc:	e7fe      	b.n	10040fbc <NMI_Handler>

10040fbe <HardFault_Handler>:
10040fbe:	e7fe      	b.n	10040fbe <HardFault_Handler>

10040fc0 <SVC_Handler>:
10040fc0:	4770      	bx	lr

10040fc2 <PendSV_Handler>:
10040fc2:	4770      	bx	lr

10040fc4 <SysTick_Handler>:
10040fc4:	b510      	push	{r4, lr}
10040fc6:	f000 fa85 	bl	100414d4 <HAL_IncTick>
10040fca:	bd10      	pop	{r4, pc}

10040fcc <RADIO_TIMER_CPU_WKUP_IRQHandler>:
10040fcc:	b510      	push	{r4, lr}
10040fce:	f001 f9c2 	bl	10042356 <HAL_RADIO_TIMER_CPU_WKUP_IRQHandler>
10040fd2:	bd10      	pop	{r4, pc}

10040fd4 <RADIO_TIMER_ERROR_IRQHandler>:
10040fd4:	b510      	push	{r4, lr}
10040fd6:	f001 f9c4 	bl	10042362 <HAL_RADIO_TIMER_ERROR_IRQHandler>
10040fda:	bd10      	pop	{r4, pc}

10040fdc <RADIO_TXRX_IRQHandler>:
10040fdc:	b510      	push	{r4, lr}
10040fde:	f000 ff5b 	bl	10041e98 <HAL_RADIO_TXRX_IRQHandler>
10040fe2:	bd10      	pop	{r4, pc}

10040fe4 <RADIO_TXRX_SEQ_IRQHandler>:
10040fe4:	b510      	push	{r4, lr}
10040fe6:	f000 fff5 	bl	10041fd4 <HAL_RADIO_TXRX_SEQ_IRQHandler>
10040fea:	bd10      	pop	{r4, pc}

10040fec <_sbrk>:
10040fec:	490b      	ldr	r1, [pc, #44]	@ (1004101c <_sbrk+0x30>)
10040fee:	4a0c      	ldr	r2, [pc, #48]	@ (10041020 <_sbrk+0x34>)
10040ff0:	0003      	movs	r3, r0
10040ff2:	1a52      	subs	r2, r2, r1
10040ff4:	490b      	ldr	r1, [pc, #44]	@ (10041024 <_sbrk+0x38>)
10040ff6:	b510      	push	{r4, lr}
10040ff8:	6808      	ldr	r0, [r1, #0]
10040ffa:	2800      	cmp	r0, #0
10040ffc:	d101      	bne.n	10041002 <_sbrk+0x16>
10040ffe:	480a      	ldr	r0, [pc, #40]	@ (10041028 <_sbrk+0x3c>)
10041000:	6008      	str	r0, [r1, #0]
10041002:	6808      	ldr	r0, [r1, #0]
10041004:	18c3      	adds	r3, r0, r3
10041006:	4293      	cmp	r3, r2
10041008:	d906      	bls.n	10041018 <_sbrk+0x2c>
1004100a:	f002 fb53 	bl	100436b4 <__errno>
1004100e:	230c      	movs	r3, #12
10041010:	6003      	str	r3, [r0, #0]
10041012:	2001      	movs	r0, #1
10041014:	4240      	negs	r0, r0
10041016:	bd10      	pop	{r4, pc}
10041018:	600b      	str	r3, [r1, #0]
1004101a:	e7fc      	b.n	10041016 <_sbrk+0x2a>
1004101c:	00000c00 	.word	0x00000c00
10041020:	20006000 	.word	0x20006000
10041024:	20000760 	.word	0x20000760
10041028:	20000a5c 	.word	0x20000a5c

1004102c <SystemCoreClockUpdate>:
1004102c:	4b07      	ldr	r3, [pc, #28]	@ (1004104c <SystemCoreClockUpdate+0x20>)
1004102e:	689a      	ldr	r2, [r3, #8]
10041030:	689b      	ldr	r3, [r3, #8]
10041032:	055b      	lsls	r3, r3, #21
10041034:	0f5b      	lsrs	r3, r3, #29
10041036:	0792      	lsls	r2, r2, #30
10041038:	d506      	bpl.n	10041048 <SystemCoreClockUpdate+0x1c>
1004103a:	4a05      	ldr	r2, [pc, #20]	@ (10041050 <SystemCoreClockUpdate+0x24>)
1004103c:	3b01      	subs	r3, #1
1004103e:	40da      	lsrs	r2, r3
10041040:	0013      	movs	r3, r2
10041042:	4a04      	ldr	r2, [pc, #16]	@ (10041054 <SystemCoreClockUpdate+0x28>)
10041044:	6013      	str	r3, [r2, #0]
10041046:	4770      	bx	lr
10041048:	4a03      	ldr	r2, [pc, #12]	@ (10041058 <SystemCoreClockUpdate+0x2c>)
1004104a:	e7f8      	b.n	1004103e <SystemCoreClockUpdate+0x12>
1004104c:	48400000 	.word	0x48400000
10041050:	01e84800 	.word	0x01e84800
10041054:	20000a00 	.word	0x20000a00
10041058:	03d09000 	.word	0x03d09000

1004105c <CPUcontextRestore>:
1004105c:	4770      	bx	lr
	...

10041060 <SystemInit>:
10041060:	b5f8      	push	{r3, r4, r5, r6, r7, lr}
10041062:	4b42      	ldr	r3, [pc, #264]	@ (1004116c <SystemInit+0x10c>)
10041064:	4a42      	ldr	r2, [pc, #264]	@ (10041170 <SystemInit+0x110>)
10041066:	6819      	ldr	r1, [r3, #0]
10041068:	4c42      	ldr	r4, [pc, #264]	@ (10041174 <SystemInit+0x114>)
1004106a:	4b43      	ldr	r3, [pc, #268]	@ (10041178 <SystemInit+0x118>)
1004106c:	2900      	cmp	r1, #0
1004106e:	d111      	bne.n	10041094 <SystemInit+0x34>
10041070:	6919      	ldr	r1, [r3, #16]
10041072:	2900      	cmp	r1, #0
10041074:	d102      	bne.n	1004107c <SystemInit+0x1c>
10041076:	6b99      	ldr	r1, [r3, #56]	@ 0x38
10041078:	2900      	cmp	r1, #0
1004107a:	d00b      	beq.n	10041094 <SystemInit+0x34>
1004107c:	2301      	movs	r3, #1
1004107e:	6093      	str	r3, [r2, #8]
10041080:	f7ff ffec 	bl	1004105c <CPUcontextRestore>
10041084:	f3bf 8f4f 	dsb	sy
10041088:	4b3c      	ldr	r3, [pc, #240]	@ (1004117c <SystemInit+0x11c>)
1004108a:	60e3      	str	r3, [r4, #12]
1004108c:	f3bf 8f4f 	dsb	sy
10041090:	46c0      	nop			@ (mov r8, r8)
10041092:	e7fd      	b.n	10041090 <SystemInit+0x30>
10041094:	493a      	ldr	r1, [pc, #232]	@ (10041180 <SystemInit+0x120>)
10041096:	60a1      	str	r1, [r4, #8]
10041098:	68a1      	ldr	r1, [r4, #8]
1004109a:	6111      	str	r1, [r2, #16]
1004109c:	2220      	movs	r2, #32
1004109e:	6859      	ldr	r1, [r3, #4]
100410a0:	430a      	orrs	r2, r1
100410a2:	605a      	str	r2, [r3, #4]
100410a4:	685a      	ldr	r2, [r3, #4]
100410a6:	4937      	ldr	r1, [pc, #220]	@ (10041184 <SystemInit+0x124>)
100410a8:	400a      	ands	r2, r1
100410aa:	605a      	str	r2, [r3, #4]
100410ac:	2204      	movs	r2, #4
100410ae:	6959      	ldr	r1, [r3, #20]
100410b0:	4211      	tst	r1, r2
100410b2:	d0fc      	beq.n	100410ae <SystemInit+0x4e>
100410b4:	2130      	movs	r1, #48	@ 0x30
100410b6:	69da      	ldr	r2, [r3, #28]
100410b8:	4833      	ldr	r0, [pc, #204]	@ (10041188 <SystemInit+0x128>)
100410ba:	438a      	bics	r2, r1
100410bc:	3910      	subs	r1, #16
100410be:	430a      	orrs	r2, r1
100410c0:	61da      	str	r2, [r3, #28]
100410c2:	69da      	ldr	r2, [r3, #28]
100410c4:	4002      	ands	r2, r0
100410c6:	61da      	str	r2, [r3, #28]
100410c8:	2280      	movs	r2, #128	@ 0x80
100410ca:	69d8      	ldr	r0, [r3, #28]
100410cc:	0052      	lsls	r2, r2, #1
100410ce:	4302      	orrs	r2, r0
100410d0:	61da      	str	r2, [r3, #28]
100410d2:	4b2e      	ldr	r3, [pc, #184]	@ (1004118c <SystemInit+0x12c>)
100410d4:	681a      	ldr	r2, [r3, #0]
100410d6:	4b2e      	ldr	r3, [pc, #184]	@ (10041190 <SystemInit+0x130>)
100410d8:	429a      	cmp	r2, r3
100410da:	d02d      	beq.n	10041138 <SystemInit+0xd8>
100410dc:	221e      	movs	r2, #30
100410de:	4b2d      	ldr	r3, [pc, #180]	@ (10041194 <SystemInit+0x134>)
100410e0:	68d8      	ldr	r0, [r3, #12]
100410e2:	4390      	bics	r0, r2
100410e4:	3a0e      	subs	r2, #14
100410e6:	4302      	orrs	r2, r0
100410e8:	60da      	str	r2, [r3, #12]
100410ea:	2201      	movs	r2, #1
100410ec:	68d8      	ldr	r0, [r3, #12]
100410ee:	4302      	orrs	r2, r0
100410f0:	60da      	str	r2, [r3, #12]
100410f2:	68d8      	ldr	r0, [r3, #12]
100410f4:	4a28      	ldr	r2, [pc, #160]	@ (10041198 <SystemInit+0x138>)
100410f6:	4010      	ands	r0, r2
100410f8:	22f8      	movs	r2, #248	@ 0xf8
100410fa:	0552      	lsls	r2, r2, #21
100410fc:	4302      	orrs	r2, r0
100410fe:	60da      	str	r2, [r3, #12]
10041100:	2280      	movs	r2, #128	@ 0x80
10041102:	68d8      	ldr	r0, [r3, #12]
10041104:	0412      	lsls	r2, r2, #16
10041106:	4302      	orrs	r2, r0
10041108:	60da      	str	r2, [r3, #12]
1004110a:	4b24      	ldr	r3, [pc, #144]	@ (1004119c <SystemInit+0x13c>)
1004110c:	4a24      	ldr	r2, [pc, #144]	@ (100411a0 <SystemInit+0x140>)
1004110e:	6818      	ldr	r0, [r3, #0]
10041110:	4010      	ands	r0, r2
10041112:	22a0      	movs	r2, #160	@ 0xa0
10041114:	0092      	lsls	r2, r2, #2
10041116:	4302      	orrs	r2, r0
10041118:	601a      	str	r2, [r3, #0]
1004111a:	681a      	ldr	r2, [r3, #0]
1004111c:	4311      	orrs	r1, r2
1004111e:	6019      	str	r1, [r3, #0]
10041120:	6819      	ldr	r1, [r3, #0]
10041122:	4a20      	ldr	r2, [pc, #128]	@ (100411a4 <SystemInit+0x144>)
10041124:	4011      	ands	r1, r2
10041126:	22c0      	movs	r2, #192	@ 0xc0
10041128:	0152      	lsls	r2, r2, #5
1004112a:	430a      	orrs	r2, r1
1004112c:	601a      	str	r2, [r3, #0]
1004112e:	2280      	movs	r2, #128	@ 0x80
10041130:	6819      	ldr	r1, [r3, #0]
10041132:	00d2      	lsls	r2, r2, #3
10041134:	430a      	orrs	r2, r1
10041136:	601a      	str	r2, [r3, #0]
10041138:	20c0      	movs	r0, #192	@ 0xc0
1004113a:	2200      	movs	r2, #0
1004113c:	2603      	movs	r6, #3
1004113e:	25ff      	movs	r5, #255	@ 0xff
10041140:	0080      	lsls	r0, r0, #2
10041142:	0017      	movs	r7, r2
10041144:	002c      	movs	r4, r5
10041146:	4037      	ands	r7, r6
10041148:	00ff      	lsls	r7, r7, #3
1004114a:	40bc      	lsls	r4, r7
1004114c:	4916      	ldr	r1, [pc, #88]	@ (100411a8 <SystemInit+0x148>)
1004114e:	0893      	lsrs	r3, r2, #2
10041150:	009b      	lsls	r3, r3, #2
10041152:	185b      	adds	r3, r3, r1
10041154:	5819      	ldr	r1, [r3, r0]
10041156:	3201      	adds	r2, #1
10041158:	43a1      	bics	r1, r4
1004115a:	24c0      	movs	r4, #192	@ 0xc0
1004115c:	40bc      	lsls	r4, r7
1004115e:	4321      	orrs	r1, r4
10041160:	5019      	str	r1, [r3, r0]
10041162:	2a20      	cmp	r2, #32
10041164:	d1ed      	bne.n	10041142 <SystemInit+0xe2>
10041166:	b662      	cpsie	i
10041168:	bdf8      	pop	{r3, r4, r5, r6, r7, pc}
1004116a:	46c0      	nop			@ (mov r8, r8)
1004116c:	48400094 	.word	0x48400094
10041170:	20000004 	.word	0x20000004
10041174:	e000ed00 	.word	0xe000ed00
10041178:	48500000 	.word	0x48500000
1004117c:	05fa0004 	.word	0x05fa0004
10041180:	10040000 	.word	0x10040000
10041184:	fffffeff 	.word	0xfffffeff
10041188:	fffffbff 	.word	0xfffffbff
1004118c:	10001ef8 	.word	0x10001ef8
10041190:	fcbceccc 	.word	0xfcbceccc
10041194:	48400000 	.word	0x48400000
10041198:	c0ffffff 	.word	0xc0ffffff
1004119c:	48500094 	.word	0x48500094
100411a0:	fffffc3f 	.word	0xfffffc3f
100411a4:	ffffc7ff 	.word	0xffffc7ff
100411a8:	e000e100 	.word	0xe000e100

100411ac <Reset_Handler>:
100411ac:	4810      	ldr	r0, [pc, #64]	@ (100411f0 <LoopForever+0x2>)
100411ae:	4685      	mov	sp, r0
100411b0:	f7ff ff56 	bl	10041060 <SystemInit>
100411b4:	2100      	movs	r1, #0
100411b6:	e003      	b.n	100411c0 <LoopCopyDataInit>

100411b8 <CopyDataInit>:
100411b8:	4b0e      	ldr	r3, [pc, #56]	@ (100411f4 <LoopForever+0x6>)
100411ba:	585b      	ldr	r3, [r3, r1]
100411bc:	5043      	str	r3, [r0, r1]
100411be:	3104      	adds	r1, #4

100411c0 <LoopCopyDataInit>:
100411c0:	480d      	ldr	r0, [pc, #52]	@ (100411f8 <LoopForever+0xa>)
100411c2:	4b0e      	ldr	r3, [pc, #56]	@ (100411fc <LoopForever+0xe>)
100411c4:	1842      	adds	r2, r0, r1
100411c6:	429a      	cmp	r2, r3
100411c8:	d3f6      	bcc.n	100411b8 <CopyDataInit>
100411ca:	4a0d      	ldr	r2, [pc, #52]	@ (10041200 <LoopForever+0x12>)
100411cc:	e002      	b.n	100411d4 <LoopFillZerobss>

100411ce <FillZerobss>:
100411ce:	2300      	movs	r3, #0
100411d0:	6013      	str	r3, [r2, #0]
100411d2:	3204      	adds	r2, #4

100411d4 <LoopFillZerobss>:
100411d4:	4b0b      	ldr	r3, [pc, #44]	@ (10041204 <LoopForever+0x16>)
100411d6:	429a      	cmp	r2, r3
100411d8:	d3f9      	bcc.n	100411ce <FillZerobss>
100411da:	4a0b      	ldr	r2, [pc, #44]	@ (10041208 <LoopForever+0x1a>)
100411dc:	e002      	b.n	100411e4 <LoopFillZeroBlueRam>

100411de <FillZerobssram>:
100411de:	2300      	movs	r3, #0
100411e0:	6013      	str	r3, [r2, #0]
100411e2:	3204      	adds	r2, #4

100411e4 <LoopFillZeroBlueRam>:
100411e4:	4b09      	ldr	r3, [pc, #36]	@ (1004120c <LoopForever+0x1e>)
100411e6:	429a      	cmp	r2, r3
100411e8:	d3f9      	bcc.n	100411de <FillZerobssram>
100411ea:	f7ff fcef 	bl	10040bcc <main>

100411ee <LoopForever>:
100411ee:	e7fe      	b.n	100411ee <LoopForever>
100411f0:	20006000 	.word	0x20006000
100411f4:	10043f34 	.word	0x10043f34
100411f8:	200009e8 	.word	0x200009e8
100411fc:	20000a5c 	.word	0x20000a5c
10041200:	20000194 	.word	0x20000194
10041204:	200009e8 	.word	0x200009e8
10041208:	200000c0 	.word	0x200000c0
1004120c:	20000194 	.word	0x20000194

10041210 <ADC_IRQHandler>:
10041210:	e7fe      	b.n	10041210 <ADC_IRQHandler>

10041212 <LL_PWR_EnableGPIOPullUp>:
10041212:	6843      	ldr	r3, [r0, #4]
10041214:	438b      	bics	r3, r1
10041216:	6043      	str	r3, [r0, #4]
10041218:	6803      	ldr	r3, [r0, #0]
1004121a:	430b      	orrs	r3, r1
1004121c:	6003      	str	r3, [r0, #0]
1004121e:	4770      	bx	lr

10041220 <LL_AHB1_GRP1_EnableClock>:
10041220:	4b05      	ldr	r3, [pc, #20]	@ (10041238 <LL_AHB1_GRP1_EnableClock+0x18>)
10041222:	b082      	sub	sp, #8
10041224:	6d1a      	ldr	r2, [r3, #80]	@ 0x50
10041226:	4302      	orrs	r2, r0
10041228:	651a      	str	r2, [r3, #80]	@ 0x50
1004122a:	6d1b      	ldr	r3, [r3, #80]	@ 0x50
1004122c:	4018      	ands	r0, r3
1004122e:	9001      	str	r0, [sp, #4]
10041230:	9b01      	ldr	r3, [sp, #4]
10041232:	b002      	add	sp, #8
10041234:	4770      	bx	lr
10041236:	46c0      	nop			@ (mov r8, r8)
10041238:	48400000 	.word	0x48400000

1004123c <BSP_LED_Init>:
1004123c:	b530      	push	{r4, r5, lr}
1004123e:	0004      	movs	r4, r0
10041240:	b087      	sub	sp, #28
10041242:	2008      	movs	r0, #8
10041244:	f7ff ffec 	bl	10041220 <LL_AHB1_GRP1_EnableClock>
10041248:	4b14      	ldr	r3, [pc, #80]	@ (1004129c <BSP_LED_Init+0x60>)
1004124a:	0062      	lsls	r2, r4, #1
1004124c:	5ad5      	ldrh	r5, [r2, r3]
1004124e:	2301      	movs	r3, #1
10041250:	9302      	str	r3, [sp, #8]
10041252:	9303      	str	r3, [sp, #12]
10041254:	18db      	adds	r3, r3, r3
10041256:	9304      	str	r3, [sp, #16]
10041258:	4b11      	ldr	r3, [pc, #68]	@ (100412a0 <BSP_LED_Init+0x64>)
1004125a:	00a4      	lsls	r4, r4, #2
1004125c:	58e4      	ldr	r4, [r4, r3]
1004125e:	a901      	add	r1, sp, #4
10041260:	0020      	movs	r0, r4
10041262:	9501      	str	r5, [sp, #4]
10041264:	f000 f9e7 	bl	10041636 <HAL_GPIO_Init>
10041268:	4b0e      	ldr	r3, [pc, #56]	@ (100412a4 <BSP_LED_Init+0x68>)
1004126a:	681b      	ldr	r3, [r3, #0]
1004126c:	06db      	lsls	r3, r3, #27
1004126e:	d507      	bpl.n	10041280 <BSP_LED_Init+0x44>
10041270:	2390      	movs	r3, #144	@ 0x90
10041272:	05db      	lsls	r3, r3, #23
10041274:	429c      	cmp	r4, r3
10041276:	d10b      	bne.n	10041290 <BSP_LED_Init+0x54>
10041278:	9901      	ldr	r1, [sp, #4]
1004127a:	480b      	ldr	r0, [pc, #44]	@ (100412a8 <BSP_LED_Init+0x6c>)
1004127c:	f7ff ffc9 	bl	10041212 <LL_PWR_EnableGPIOPullUp>
10041280:	0020      	movs	r0, r4
10041282:	2201      	movs	r2, #1
10041284:	0029      	movs	r1, r5
10041286:	f000 fa77 	bl	10041778 <HAL_GPIO_WritePin>
1004128a:	2000      	movs	r0, #0
1004128c:	b007      	add	sp, #28
1004128e:	bd30      	pop	{r4, r5, pc}
10041290:	4b06      	ldr	r3, [pc, #24]	@ (100412ac <BSP_LED_Init+0x70>)
10041292:	429c      	cmp	r4, r3
10041294:	d1f4      	bne.n	10041280 <BSP_LED_Init+0x44>
10041296:	9901      	ldr	r1, [sp, #4]
10041298:	4805      	ldr	r0, [pc, #20]	@ (100412b0 <BSP_LED_Init+0x74>)
1004129a:	e7ef      	b.n	1004127c <BSP_LED_Init+0x40>
1004129c:	10043ec8 	.word	0x10043ec8
100412a0:	10043ebc 	.word	0x10043ebc
100412a4:	48500000 	.word	0x48500000
100412a8:	48500020 	.word	0x48500020
100412ac:	48100000 	.word	0x48100000
100412b0:	48500028 	.word	0x48500028

100412b4 <BSP_LED_Toggle>:
100412b4:	4b05      	ldr	r3, [pc, #20]	@ (100412cc <BSP_LED_Toggle+0x18>)
100412b6:	b510      	push	{r4, lr}
100412b8:	0042      	lsls	r2, r0, #1
100412ba:	5ad1      	ldrh	r1, [r2, r3]
100412bc:	4b04      	ldr	r3, [pc, #16]	@ (100412d0 <BSP_LED_Toggle+0x1c>)
100412be:	0080      	lsls	r0, r0, #2
100412c0:	58c0      	ldr	r0, [r0, r3]
100412c2:	f000 fa5f 	bl	10041784 <HAL_GPIO_TogglePin>
100412c6:	2000      	movs	r0, #0
100412c8:	bd10      	pop	{r4, pc}
100412ca:	46c0      	nop			@ (mov r8, r8)
100412cc:	10043ec8 	.word	0x10043ec8
100412d0:	10043ebc 	.word	0x10043ebc

100412d4 <BSP_PB_Init>:
100412d4:	b530      	push	{r4, r5, lr}
100412d6:	0004      	movs	r4, r0
100412d8:	000d      	movs	r5, r1
100412da:	2004      	movs	r0, #4
100412dc:	b087      	sub	sp, #28
100412de:	2c00      	cmp	r4, #0
100412e0:	d000      	beq.n	100412e4 <BSP_PB_Init+0x10>
100412e2:	2008      	movs	r0, #8
100412e4:	f7ff ff9c 	bl	10041220 <LL_AHB1_GRP1_EnableClock>
100412e8:	4b24      	ldr	r3, [pc, #144]	@ (1004137c <BSP_PB_Init+0xa8>)
100412ea:	0062      	lsls	r2, r4, #1
100412ec:	5ad3      	ldrh	r3, [r2, r3]
100412ee:	9301      	str	r3, [sp, #4]
100412f0:	2301      	movs	r3, #1
100412f2:	9303      	str	r3, [sp, #12]
100412f4:	18db      	adds	r3, r3, r3
100412f6:	9304      	str	r3, [sp, #16]
100412f8:	2d00      	cmp	r5, #0
100412fa:	d118      	bne.n	1004132e <BSP_PB_Init+0x5a>
100412fc:	4b20      	ldr	r3, [pc, #128]	@ (10041380 <BSP_PB_Init+0xac>)
100412fe:	00a2      	lsls	r2, r4, #2
10041300:	58d0      	ldr	r0, [r2, r3]
10041302:	a901      	add	r1, sp, #4
10041304:	9502      	str	r5, [sp, #8]
10041306:	f000 f996 	bl	10041636 <HAL_GPIO_Init>
1004130a:	4b1e      	ldr	r3, [pc, #120]	@ (10041384 <BSP_PB_Init+0xb0>)
1004130c:	681b      	ldr	r3, [r3, #0]
1004130e:	06db      	lsls	r3, r3, #27
10041310:	d50a      	bpl.n	10041328 <BSP_PB_Init+0x54>
10041312:	2290      	movs	r2, #144	@ 0x90
10041314:	4b1a      	ldr	r3, [pc, #104]	@ (10041380 <BSP_PB_Init+0xac>)
10041316:	00a4      	lsls	r4, r4, #2
10041318:	58e3      	ldr	r3, [r4, r3]
1004131a:	05d2      	lsls	r2, r2, #23
1004131c:	4293      	cmp	r3, r2
1004131e:	d126      	bne.n	1004136e <BSP_PB_Init+0x9a>
10041320:	9901      	ldr	r1, [sp, #4]
10041322:	4819      	ldr	r0, [pc, #100]	@ (10041388 <BSP_PB_Init+0xb4>)
10041324:	f7ff ff75 	bl	10041212 <LL_PWR_EnableGPIOPullUp>
10041328:	2000      	movs	r0, #0
1004132a:	b007      	add	sp, #28
1004132c:	bd30      	pop	{r4, r5, pc}
1004132e:	2d01      	cmp	r5, #1
10041330:	d1eb      	bne.n	1004130a <BSP_PB_Init+0x36>
10041332:	2180      	movs	r1, #128	@ 0x80
10041334:	4b15      	ldr	r3, [pc, #84]	@ (1004138c <BSP_PB_Init+0xb8>)
10041336:	0049      	lsls	r1, r1, #1
10041338:	6d5a      	ldr	r2, [r3, #84]	@ 0x54
1004133a:	430a      	orrs	r2, r1
1004133c:	655a      	str	r2, [r3, #84]	@ 0x54
1004133e:	6d5b      	ldr	r3, [r3, #84]	@ 0x54
10041340:	00a2      	lsls	r2, r4, #2
10041342:	400b      	ands	r3, r1
10041344:	9300      	str	r3, [sp, #0]
10041346:	9b00      	ldr	r3, [sp, #0]
10041348:	2380      	movs	r3, #128	@ 0x80
1004134a:	025b      	lsls	r3, r3, #9
1004134c:	9302      	str	r3, [sp, #8]
1004134e:	4b0c      	ldr	r3, [pc, #48]	@ (10041380 <BSP_PB_Init+0xac>)
10041350:	a901      	add	r1, sp, #4
10041352:	58d0      	ldr	r0, [r2, r3]
10041354:	f000 f96f 	bl	10041636 <HAL_GPIO_Init>
10041358:	4b0d      	ldr	r3, [pc, #52]	@ (10041390 <BSP_PB_Init+0xbc>)
1004135a:	2200      	movs	r2, #0
1004135c:	571d      	ldrsb	r5, [r3, r4]
1004135e:	2103      	movs	r1, #3
10041360:	0028      	movs	r0, r5
10041362:	f000 f8cf 	bl	10041504 <HAL_NVIC_SetPriority>
10041366:	0028      	movs	r0, r5
10041368:	f000 f8f6 	bl	10041558 <HAL_NVIC_EnableIRQ>
1004136c:	e7cd      	b.n	1004130a <BSP_PB_Init+0x36>
1004136e:	4a09      	ldr	r2, [pc, #36]	@ (10041394 <BSP_PB_Init+0xc0>)
10041370:	4293      	cmp	r3, r2
10041372:	d1d9      	bne.n	10041328 <BSP_PB_Init+0x54>
10041374:	9901      	ldr	r1, [sp, #4]
10041376:	4808      	ldr	r0, [pc, #32]	@ (10041398 <BSP_PB_Init+0xc4>)
10041378:	e7d4      	b.n	10041324 <BSP_PB_Init+0x50>
1004137a:	46c0      	nop			@ (mov r8, r8)
1004137c:	10043eb4 	.word	0x10043eb4
10041380:	10043ea8 	.word	0x10043ea8
10041384:	48500000 	.word	0x48500000
10041388:	48500020 	.word	0x48500020
1004138c:	48400000 	.word	0x48400000
10041390:	10043ea5 	.word	0x10043ea5
10041394:	48100000 	.word	0x48100000
10041398:	48500028 	.word	0x48500028

1004139c <MX_USART1_Init>:
1004139c:	680b      	ldr	r3, [r1, #0]
1004139e:	b510      	push	{r4, lr}
100413a0:	6043      	str	r3, [r0, #4]
100413a2:	684b      	ldr	r3, [r1, #4]
100413a4:	6083      	str	r3, [r0, #8]
100413a6:	890b      	ldrh	r3, [r1, #8]
100413a8:	60c3      	str	r3, [r0, #12]
100413aa:	894b      	ldrh	r3, [r1, #10]
100413ac:	6103      	str	r3, [r0, #16]
100413ae:	230c      	movs	r3, #12
100413b0:	6143      	str	r3, [r0, #20]
100413b2:	898b      	ldrh	r3, [r1, #12]
100413b4:	6183      	str	r3, [r0, #24]
100413b6:	2380      	movs	r3, #128	@ 0x80
100413b8:	021b      	lsls	r3, r3, #8
100413ba:	61c3      	str	r3, [r0, #28]
100413bc:	2300      	movs	r3, #0
100413be:	6203      	str	r3, [r0, #32]
100413c0:	6243      	str	r3, [r0, #36]	@ 0x24
100413c2:	f001 fec7 	bl	10043154 <HAL_UART_Init>
100413c6:	bd10      	pop	{r4, pc}

100413c8 <BSP_COM_Init>:
100413c8:	b530      	push	{r4, r5, lr}
100413ca:	0002      	movs	r2, r0
100413cc:	000c      	movs	r4, r1
100413ce:	b087      	sub	sp, #28
100413d0:	2900      	cmp	r1, #0
100413d2:	d039      	beq.n	10041448 <BSP_COM_Init+0x80>
100413d4:	2094      	movs	r0, #148	@ 0x94
100413d6:	4350      	muls	r0, r2
100413d8:	4b1e      	ldr	r3, [pc, #120]	@ (10041454 <BSP_COM_Init+0x8c>)
100413da:	4a1f      	ldr	r2, [pc, #124]	@ (10041458 <BSP_COM_Init+0x90>)
100413dc:	18c5      	adds	r5, r0, r3
100413de:	50c2      	str	r2, [r0, r3]
100413e0:	2004      	movs	r0, #4
100413e2:	f7ff ff1d 	bl	10041220 <LL_AHB1_GRP1_EnableClock>
100413e6:	2008      	movs	r0, #8
100413e8:	f7ff ff1a 	bl	10041220 <LL_AHB1_GRP1_EnableClock>
100413ec:	2180      	movs	r1, #128	@ 0x80
100413ee:	4b1b      	ldr	r3, [pc, #108]	@ (1004145c <BSP_COM_Init+0x94>)
100413f0:	00c9      	lsls	r1, r1, #3
100413f2:	6d9a      	ldr	r2, [r3, #88]	@ 0x58
100413f4:	2090      	movs	r0, #144	@ 0x90
100413f6:	430a      	orrs	r2, r1
100413f8:	659a      	str	r2, [r3, #88]	@ 0x58
100413fa:	6d9b      	ldr	r3, [r3, #88]	@ 0x58
100413fc:	2201      	movs	r2, #1
100413fe:	400b      	ands	r3, r1
10041400:	9300      	str	r3, [sp, #0]
10041402:	9b00      	ldr	r3, [sp, #0]
10041404:	2302      	movs	r3, #2
10041406:	a901      	add	r1, sp, #4
10041408:	05c0      	lsls	r0, r0, #23
1004140a:	9301      	str	r3, [sp, #4]
1004140c:	9302      	str	r3, [sp, #8]
1004140e:	9304      	str	r3, [sp, #16]
10041410:	9305      	str	r3, [sp, #20]
10041412:	9203      	str	r2, [sp, #12]
10041414:	f000 f90f 	bl	10041636 <HAL_GPIO_Init>
10041418:	4b11      	ldr	r3, [pc, #68]	@ (10041460 <BSP_COM_Init+0x98>)
1004141a:	681b      	ldr	r3, [r3, #0]
1004141c:	06db      	lsls	r3, r3, #27
1004141e:	d503      	bpl.n	10041428 <BSP_COM_Init+0x60>
10041420:	9901      	ldr	r1, [sp, #4]
10041422:	4810      	ldr	r0, [pc, #64]	@ (10041464 <BSP_COM_Init+0x9c>)
10041424:	f7ff fef5 	bl	10041212 <LL_PWR_EnableGPIOPullUp>
10041428:	2301      	movs	r3, #1
1004142a:	9301      	str	r3, [sp, #4]
1004142c:	2300      	movs	r3, #0
1004142e:	480e      	ldr	r0, [pc, #56]	@ (10041468 <BSP_COM_Init+0xa0>)
10041430:	a901      	add	r1, sp, #4
10041432:	9305      	str	r3, [sp, #20]
10041434:	f000 f8ff 	bl	10041636 <HAL_GPIO_Init>
10041438:	0021      	movs	r1, r4
1004143a:	0028      	movs	r0, r5
1004143c:	f7ff ffae 	bl	1004139c <MX_USART1_Init>
10041440:	2800      	cmp	r0, #0
10041442:	d104      	bne.n	1004144e <BSP_COM_Init+0x86>
10041444:	b007      	add	sp, #28
10041446:	bd30      	pop	{r4, r5, pc}
10041448:	2002      	movs	r0, #2
1004144a:	4240      	negs	r0, r0
1004144c:	e7fa      	b.n	10041444 <BSP_COM_Init+0x7c>
1004144e:	2004      	movs	r0, #4
10041450:	e7fb      	b.n	1004144a <BSP_COM_Init+0x82>
10041452:	46c0      	nop			@ (mov r8, r8)
10041454:	20000764 	.word	0x20000764
10041458:	41004000 	.word	0x41004000
1004145c:	48400000 	.word	0x48400000
10041460:	48500000 	.word	0x48500000
10041464:	48500020 	.word	0x48500020
10041468:	48100000 	.word	0x48100000

1004146c <HAL_InitTick>:
1004146c:	b570      	push	{r4, r5, r6, lr}
1004146e:	4e11      	ldr	r6, [pc, #68]	@ (100414b4 <HAL_InitTick+0x48>)
10041470:	0005      	movs	r5, r0
10041472:	7833      	ldrb	r3, [r6, #0]
10041474:	2b00      	cmp	r3, #0
10041476:	d101      	bne.n	1004147c <HAL_InitTick+0x10>
10041478:	2001      	movs	r0, #1
1004147a:	bd70      	pop	{r4, r5, r6, pc}
1004147c:	f001 f978 	bl	10042770 <HAL_RCC_GetSysClockFreq>
10041480:	0004      	movs	r4, r0
10041482:	20fa      	movs	r0, #250	@ 0xfa
10041484:	7831      	ldrb	r1, [r6, #0]
10041486:	0080      	lsls	r0, r0, #2
10041488:	f7fe fe58 	bl	1004013c <__udivsi3>
1004148c:	0001      	movs	r1, r0
1004148e:	0020      	movs	r0, r4
10041490:	f7fe fe54 	bl	1004013c <__udivsi3>
10041494:	f000 f86c 	bl	10041570 <HAL_SYSTICK_Config>
10041498:	1e04      	subs	r4, r0, #0
1004149a:	d1ed      	bne.n	10041478 <HAL_InitTick+0xc>
1004149c:	2d03      	cmp	r5, #3
1004149e:	d8eb      	bhi.n	10041478 <HAL_InitTick+0xc>
100414a0:	0002      	movs	r2, r0
100414a2:	2001      	movs	r0, #1
100414a4:	0029      	movs	r1, r5
100414a6:	4240      	negs	r0, r0
100414a8:	f000 f82c 	bl	10041504 <HAL_NVIC_SetPriority>
100414ac:	4b02      	ldr	r3, [pc, #8]	@ (100414b8 <HAL_InitTick+0x4c>)
100414ae:	0020      	movs	r0, r4
100414b0:	601d      	str	r5, [r3, #0]
100414b2:	e7e2      	b.n	1004147a <HAL_InitTick+0xe>
100414b4:	20000a04 	.word	0x20000a04
100414b8:	20000a08 	.word	0x20000a08

100414bc <HAL_Init>:
100414bc:	b510      	push	{r4, lr}
100414be:	2003      	movs	r0, #3
100414c0:	f7ff ffd4 	bl	1004146c <HAL_InitTick>
100414c4:	1e04      	subs	r4, r0, #0
100414c6:	d103      	bne.n	100414d0 <HAL_Init+0x14>
100414c8:	f7ff fd16 	bl	10040ef8 <HAL_MspInit>
100414cc:	0020      	movs	r0, r4
100414ce:	bd10      	pop	{r4, pc}
100414d0:	2401      	movs	r4, #1
100414d2:	e7fb      	b.n	100414cc <HAL_Init+0x10>

100414d4 <HAL_IncTick>:
100414d4:	4a03      	ldr	r2, [pc, #12]	@ (100414e4 <HAL_IncTick+0x10>)
100414d6:	4b04      	ldr	r3, [pc, #16]	@ (100414e8 <HAL_IncTick+0x14>)
100414d8:	6811      	ldr	r1, [r2, #0]
100414da:	781b      	ldrb	r3, [r3, #0]
100414dc:	185b      	adds	r3, r3, r1
100414de:	6013      	str	r3, [r2, #0]
100414e0:	4770      	bx	lr
100414e2:	46c0      	nop			@ (mov r8, r8)
100414e4:	200007f8 	.word	0x200007f8
100414e8:	20000a04 	.word	0x20000a04

100414ec <HAL_GetTick>:
100414ec:	4b01      	ldr	r3, [pc, #4]	@ (100414f4 <HAL_GetTick+0x8>)
100414ee:	6818      	ldr	r0, [r3, #0]
100414f0:	4770      	bx	lr
100414f2:	46c0      	nop			@ (mov r8, r8)
100414f4:	200007f8 	.word	0x200007f8

100414f8 <HAL_GetTickPrio>:
100414f8:	4b01      	ldr	r3, [pc, #4]	@ (10041500 <HAL_GetTickPrio+0x8>)
100414fa:	6818      	ldr	r0, [r3, #0]
100414fc:	4770      	bx	lr
100414fe:	46c0      	nop			@ (mov r8, r8)
10041500:	20000a08 	.word	0x20000a08

10041504 <HAL_NVIC_SetPriority>:
10041504:	b510      	push	{r4, lr}
10041506:	24ff      	movs	r4, #255	@ 0xff
10041508:	2203      	movs	r2, #3
1004150a:	000b      	movs	r3, r1
1004150c:	0021      	movs	r1, r4
1004150e:	4002      	ands	r2, r0
10041510:	00d2      	lsls	r2, r2, #3
10041512:	4091      	lsls	r1, r2
10041514:	019b      	lsls	r3, r3, #6
10041516:	4023      	ands	r3, r4
10041518:	43c9      	mvns	r1, r1
1004151a:	4093      	lsls	r3, r2
1004151c:	2800      	cmp	r0, #0
1004151e:	db0a      	blt.n	10041536 <HAL_NVIC_SetPriority+0x32>
10041520:	24c0      	movs	r4, #192	@ 0xc0
10041522:	4a0b      	ldr	r2, [pc, #44]	@ (10041550 <HAL_NVIC_SetPriority+0x4c>)
10041524:	0880      	lsrs	r0, r0, #2
10041526:	0080      	lsls	r0, r0, #2
10041528:	1880      	adds	r0, r0, r2
1004152a:	00a4      	lsls	r4, r4, #2
1004152c:	5902      	ldr	r2, [r0, r4]
1004152e:	400a      	ands	r2, r1
10041530:	4313      	orrs	r3, r2
10041532:	5103      	str	r3, [r0, r4]
10041534:	bd10      	pop	{r4, pc}
10041536:	220f      	movs	r2, #15
10041538:	4010      	ands	r0, r2
1004153a:	3808      	subs	r0, #8
1004153c:	4a05      	ldr	r2, [pc, #20]	@ (10041554 <HAL_NVIC_SetPriority+0x50>)
1004153e:	0880      	lsrs	r0, r0, #2
10041540:	0080      	lsls	r0, r0, #2
10041542:	1880      	adds	r0, r0, r2
10041544:	69c2      	ldr	r2, [r0, #28]
10041546:	4011      	ands	r1, r2
10041548:	4319      	orrs	r1, r3
1004154a:	61c1      	str	r1, [r0, #28]
1004154c:	e7f2      	b.n	10041534 <HAL_NVIC_SetPriority+0x30>
1004154e:	46c0      	nop			@ (mov r8, r8)
10041550:	e000e100 	.word	0xe000e100
10041554:	e000ed00 	.word	0xe000ed00

10041558 <HAL_NVIC_EnableIRQ>:
10041558:	2800      	cmp	r0, #0
1004155a:	db05      	blt.n	10041568 <HAL_NVIC_EnableIRQ+0x10>
1004155c:	231f      	movs	r3, #31
1004155e:	4018      	ands	r0, r3
10041560:	3b1e      	subs	r3, #30
10041562:	4083      	lsls	r3, r0
10041564:	4a01      	ldr	r2, [pc, #4]	@ (1004156c <HAL_NVIC_EnableIRQ+0x14>)
10041566:	6013      	str	r3, [r2, #0]
10041568:	4770      	bx	lr
1004156a:	46c0      	nop			@ (mov r8, r8)
1004156c:	e000e100 	.word	0xe000e100

10041570 <HAL_SYSTICK_Config>:
10041570:	2280      	movs	r2, #128	@ 0x80
10041572:	1e43      	subs	r3, r0, #1
10041574:	0452      	lsls	r2, r2, #17
10041576:	2001      	movs	r0, #1
10041578:	4293      	cmp	r3, r2
1004157a:	d20d      	bcs.n	10041598 <HAL_SYSTICK_Config+0x28>
1004157c:	21c0      	movs	r1, #192	@ 0xc0
1004157e:	4a07      	ldr	r2, [pc, #28]	@ (1004159c <HAL_SYSTICK_Config+0x2c>)
10041580:	4807      	ldr	r0, [pc, #28]	@ (100415a0 <HAL_SYSTICK_Config+0x30>)
10041582:	6053      	str	r3, [r2, #4]
10041584:	6a03      	ldr	r3, [r0, #32]
10041586:	0609      	lsls	r1, r1, #24
10041588:	021b      	lsls	r3, r3, #8
1004158a:	0a1b      	lsrs	r3, r3, #8
1004158c:	430b      	orrs	r3, r1
1004158e:	6203      	str	r3, [r0, #32]
10041590:	2000      	movs	r0, #0
10041592:	2307      	movs	r3, #7
10041594:	6090      	str	r0, [r2, #8]
10041596:	6013      	str	r3, [r2, #0]
10041598:	4770      	bx	lr
1004159a:	46c0      	nop			@ (mov r8, r8)
1004159c:	e000e010 	.word	0xe000e010
100415a0:	e000ed00 	.word	0xe000ed00

100415a4 <HAL_DMA_Abort>:
100415a4:	b530      	push	{r4, r5, lr}
100415a6:	2800      	cmp	r0, #0
100415a8:	d008      	beq.n	100415bc <HAL_DMA_Abort+0x18>
100415aa:	1d85      	adds	r5, r0, #6
100415ac:	7feb      	ldrb	r3, [r5, #31]
100415ae:	1d44      	adds	r4, r0, #5
100415b0:	2b02      	cmp	r3, #2
100415b2:	d005      	beq.n	100415c0 <HAL_DMA_Abort+0x1c>
100415b4:	2304      	movs	r3, #4
100415b6:	63c3      	str	r3, [r0, #60]	@ 0x3c
100415b8:	2300      	movs	r3, #0
100415ba:	77e3      	strb	r3, [r4, #31]
100415bc:	2001      	movs	r0, #1
100415be:	bd30      	pop	{r4, r5, pc}
100415c0:	210e      	movs	r1, #14
100415c2:	6803      	ldr	r3, [r0, #0]
100415c4:	681a      	ldr	r2, [r3, #0]
100415c6:	438a      	bics	r2, r1
100415c8:	601a      	str	r2, [r3, #0]
100415ca:	2201      	movs	r2, #1
100415cc:	6819      	ldr	r1, [r3, #0]
100415ce:	4391      	bics	r1, r2
100415d0:	6019      	str	r1, [r3, #0]
100415d2:	6c43      	ldr	r3, [r0, #68]	@ 0x44
100415d4:	6c01      	ldr	r1, [r0, #64]	@ 0x40
100415d6:	203c      	movs	r0, #60	@ 0x3c
100415d8:	4003      	ands	r3, r0
100415da:	0010      	movs	r0, r2
100415dc:	4098      	lsls	r0, r3
100415de:	6048      	str	r0, [r1, #4]
100415e0:	2000      	movs	r0, #0
100415e2:	77ea      	strb	r2, [r5, #31]
100415e4:	77e0      	strb	r0, [r4, #31]
100415e6:	e7ea      	b.n	100415be <HAL_DMA_Abort+0x1a>

100415e8 <HAL_DMA_Abort_IT>:
100415e8:	b570      	push	{r4, r5, r6, lr}
100415ea:	1d84      	adds	r4, r0, #6
100415ec:	7fe3      	ldrb	r3, [r4, #31]
100415ee:	2b02      	cmp	r3, #2
100415f0:	d003      	beq.n	100415fa <HAL_DMA_Abort_IT+0x12>
100415f2:	2304      	movs	r3, #4
100415f4:	63c3      	str	r3, [r0, #60]	@ 0x3c
100415f6:	2001      	movs	r0, #1
100415f8:	bd70      	pop	{r4, r5, r6, pc}
100415fa:	210e      	movs	r1, #14
100415fc:	6803      	ldr	r3, [r0, #0]
100415fe:	253c      	movs	r5, #60	@ 0x3c
10041600:	681a      	ldr	r2, [r3, #0]
10041602:	438a      	bics	r2, r1
10041604:	601a      	str	r2, [r3, #0]
10041606:	2201      	movs	r2, #1
10041608:	6819      	ldr	r1, [r3, #0]
1004160a:	4391      	bics	r1, r2
1004160c:	6019      	str	r1, [r3, #0]
1004160e:	6c43      	ldr	r3, [r0, #68]	@ 0x44
10041610:	6c01      	ldr	r1, [r0, #64]	@ 0x40
10041612:	402b      	ands	r3, r5
10041614:	0015      	movs	r5, r2
10041616:	409d      	lsls	r5, r3
10041618:	604d      	str	r5, [r1, #4]
1004161a:	77e2      	strb	r2, [r4, #31]
1004161c:	2200      	movs	r2, #0
1004161e:	1d43      	adds	r3, r0, #5
10041620:	77da      	strb	r2, [r3, #31]
10041622:	6b83      	ldr	r3, [r0, #56]	@ 0x38
10041624:	4293      	cmp	r3, r2
10041626:	d000      	beq.n	1004162a <HAL_DMA_Abort_IT+0x42>
10041628:	4798      	blx	r3
1004162a:	2000      	movs	r0, #0
1004162c:	e7e4      	b.n	100415f8 <HAL_DMA_Abort_IT+0x10>

1004162e <HAL_DMA_GetState>:
1004162e:	3006      	adds	r0, #6
10041630:	7fc0      	ldrb	r0, [r0, #31]
10041632:	b2c0      	uxtb	r0, r0
10041634:	4770      	bx	lr

10041636 <HAL_GPIO_Init>:
10041636:	2300      	movs	r3, #0
10041638:	b5f7      	push	{r0, r1, r2, r4, r5, r6, r7, lr}
1004163a:	680a      	ldr	r2, [r1, #0]
1004163c:	0014      	movs	r4, r2
1004163e:	40dc      	lsrs	r4, r3
10041640:	d100      	bne.n	10041644 <HAL_GPIO_Init+0xe>
10041642:	bdf7      	pop	{r0, r1, r2, r4, r5, r6, r7, pc}
10041644:	2601      	movs	r6, #1
10041646:	409e      	lsls	r6, r3
10041648:	4232      	tst	r2, r6
1004164a:	d100      	bne.n	1004164e <HAL_GPIO_Init+0x18>
1004164c:	e084      	b.n	10041758 <HAL_GPIO_Init+0x122>
1004164e:	2403      	movs	r4, #3
10041650:	005d      	lsls	r5, r3, #1
10041652:	40ac      	lsls	r4, r5
10041654:	2203      	movs	r2, #3
10041656:	43e4      	mvns	r4, r4
10041658:	684f      	ldr	r7, [r1, #4]
1004165a:	9400      	str	r4, [sp, #0]
1004165c:	403a      	ands	r2, r7
1004165e:	1e54      	subs	r4, r2, #1
10041660:	2c01      	cmp	r4, #1
10041662:	d831      	bhi.n	100416c8 <HAL_GPIO_Init+0x92>
10041664:	6885      	ldr	r5, [r0, #8]
10041666:	9c00      	ldr	r4, [sp, #0]
10041668:	4025      	ands	r5, r4
1004166a:	46ac      	mov	ip, r5
1004166c:	68cc      	ldr	r4, [r1, #12]
1004166e:	005d      	lsls	r5, r3, #1
10041670:	40ac      	lsls	r4, r5
10041672:	4665      	mov	r5, ip
10041674:	432c      	orrs	r4, r5
10041676:	6084      	str	r4, [r0, #8]
10041678:	6845      	ldr	r5, [r0, #4]
1004167a:	093c      	lsrs	r4, r7, #4
1004167c:	43b5      	bics	r5, r6
1004167e:	2601      	movs	r6, #1
10041680:	4034      	ands	r4, r6
10041682:	409c      	lsls	r4, r3
10041684:	432c      	orrs	r4, r5
10041686:	6044      	str	r4, [r0, #4]
10041688:	68c5      	ldr	r5, [r0, #12]
1004168a:	9c00      	ldr	r4, [sp, #0]
1004168c:	005e      	lsls	r6, r3, #1
1004168e:	4025      	ands	r5, r4
10041690:	688c      	ldr	r4, [r1, #8]
10041692:	40b4      	lsls	r4, r6
10041694:	432c      	orrs	r4, r5
10041696:	60c4      	str	r4, [r0, #12]
10041698:	2a02      	cmp	r2, #2
1004169a:	d117      	bne.n	100416cc <HAL_GPIO_Init+0x96>
1004169c:	2507      	movs	r5, #7
1004169e:	260f      	movs	r6, #15
100416a0:	401d      	ands	r5, r3
100416a2:	00ad      	lsls	r5, r5, #2
100416a4:	40ae      	lsls	r6, r5
100416a6:	46b4      	mov	ip, r6
100416a8:	08dc      	lsrs	r4, r3, #3
100416aa:	00a4      	lsls	r4, r4, #2
100416ac:	1904      	adds	r4, r0, r4
100416ae:	9401      	str	r4, [sp, #4]
100416b0:	6a24      	ldr	r4, [r4, #32]
100416b2:	0026      	movs	r6, r4
100416b4:	4664      	mov	r4, ip
100416b6:	43a6      	bics	r6, r4
100416b8:	46b4      	mov	ip, r6
100416ba:	690e      	ldr	r6, [r1, #16]
100416bc:	4664      	mov	r4, ip
100416be:	40ae      	lsls	r6, r5
100416c0:	4326      	orrs	r6, r4
100416c2:	9c01      	ldr	r4, [sp, #4]
100416c4:	6226      	str	r6, [r4, #32]
100416c6:	e001      	b.n	100416cc <HAL_GPIO_Init+0x96>
100416c8:	2a03      	cmp	r2, #3
100416ca:	d1dd      	bne.n	10041688 <HAL_GPIO_Init+0x52>
100416cc:	6804      	ldr	r4, [r0, #0]
100416ce:	9d00      	ldr	r5, [sp, #0]
100416d0:	4025      	ands	r5, r4
100416d2:	002c      	movs	r4, r5
100416d4:	005d      	lsls	r5, r3, #1
100416d6:	40aa      	lsls	r2, r5
100416d8:	4322      	orrs	r2, r4
100416da:	6002      	str	r2, [r0, #0]
100416dc:	22c0      	movs	r2, #192	@ 0xc0
100416de:	0292      	lsls	r2, r2, #10
100416e0:	4217      	tst	r7, r2
100416e2:	d039      	beq.n	10041758 <HAL_GPIO_Init+0x122>
100416e4:	2280      	movs	r2, #128	@ 0x80
100416e6:	02d2      	lsls	r2, r2, #11
100416e8:	4217      	tst	r7, r2
100416ea:	d00b      	beq.n	10041704 <HAL_GPIO_Init+0xce>
100416ec:	2580      	movs	r5, #128	@ 0x80
100416ee:	2201      	movs	r2, #1
100416f0:	2690      	movs	r6, #144	@ 0x90
100416f2:	05ed      	lsls	r5, r5, #23
100416f4:	409a      	lsls	r2, r3
100416f6:	68ec      	ldr	r4, [r5, #12]
100416f8:	05f6      	lsls	r6, r6, #23
100416fa:	42b0      	cmp	r0, r6
100416fc:	d12e      	bne.n	1004175c <HAL_GPIO_Init+0x126>
100416fe:	4394      	bics	r4, r2
10041700:	4322      	orrs	r2, r4
10041702:	60ea      	str	r2, [r5, #12]
10041704:	02fa      	lsls	r2, r7, #11
10041706:	d50b      	bpl.n	10041720 <HAL_GPIO_Init+0xea>
10041708:	2580      	movs	r5, #128	@ 0x80
1004170a:	2201      	movs	r2, #1
1004170c:	2690      	movs	r6, #144	@ 0x90
1004170e:	05ed      	lsls	r5, r5, #23
10041710:	409a      	lsls	r2, r3
10041712:	692c      	ldr	r4, [r5, #16]
10041714:	05f6      	lsls	r6, r6, #23
10041716:	42b0      	cmp	r0, r6
10041718:	d122      	bne.n	10041760 <HAL_GPIO_Init+0x12a>
1004171a:	4394      	bics	r4, r2
1004171c:	4322      	orrs	r2, r4
1004171e:	612a      	str	r2, [r5, #16]
10041720:	027a      	lsls	r2, r7, #9
10041722:	d50b      	bpl.n	1004173c <HAL_GPIO_Init+0x106>
10041724:	2580      	movs	r5, #128	@ 0x80
10041726:	2201      	movs	r2, #1
10041728:	2690      	movs	r6, #144	@ 0x90
1004172a:	05ed      	lsls	r5, r5, #23
1004172c:	409a      	lsls	r2, r3
1004172e:	696c      	ldr	r4, [r5, #20]
10041730:	05f6      	lsls	r6, r6, #23
10041732:	42b0      	cmp	r0, r6
10041734:	d116      	bne.n	10041764 <HAL_GPIO_Init+0x12e>
10041736:	4394      	bics	r4, r2
10041738:	4322      	orrs	r2, r4
1004173a:	616a      	str	r2, [r5, #20]
1004173c:	03ff      	lsls	r7, r7, #15
1004173e:	d50b      	bpl.n	10041758 <HAL_GPIO_Init+0x122>
10041740:	2580      	movs	r5, #128	@ 0x80
10041742:	2201      	movs	r2, #1
10041744:	2690      	movs	r6, #144	@ 0x90
10041746:	05ed      	lsls	r5, r5, #23
10041748:	409a      	lsls	r2, r3
1004174a:	69ac      	ldr	r4, [r5, #24]
1004174c:	05f6      	lsls	r6, r6, #23
1004174e:	42b0      	cmp	r0, r6
10041750:	d10a      	bne.n	10041768 <HAL_GPIO_Init+0x132>
10041752:	4394      	bics	r4, r2
10041754:	4322      	orrs	r2, r4
10041756:	61aa      	str	r2, [r5, #24]
10041758:	3301      	adds	r3, #1
1004175a:	e76e      	b.n	1004163a <HAL_GPIO_Init+0x4>
1004175c:	0412      	lsls	r2, r2, #16
1004175e:	e7ce      	b.n	100416fe <HAL_GPIO_Init+0xc8>
10041760:	0412      	lsls	r2, r2, #16
10041762:	e7da      	b.n	1004171a <HAL_GPIO_Init+0xe4>
10041764:	0412      	lsls	r2, r2, #16
10041766:	e7e6      	b.n	10041736 <HAL_GPIO_Init+0x100>
10041768:	0412      	lsls	r2, r2, #16
1004176a:	e7f2      	b.n	10041752 <HAL_GPIO_Init+0x11c>

1004176c <HAL_GPIO_ReadPin>:
1004176c:	6900      	ldr	r0, [r0, #16]
1004176e:	4008      	ands	r0, r1
10041770:	1e43      	subs	r3, r0, #1
10041772:	4198      	sbcs	r0, r3
10041774:	b2c0      	uxtb	r0, r0
10041776:	4770      	bx	lr

10041778 <HAL_GPIO_WritePin>:
10041778:	2a00      	cmp	r2, #0
1004177a:	d001      	beq.n	10041780 <HAL_GPIO_WritePin+0x8>
1004177c:	6181      	str	r1, [r0, #24]
1004177e:	4770      	bx	lr
10041780:	6281      	str	r1, [r0, #40]	@ 0x28
10041782:	e7fc      	b.n	1004177e <HAL_GPIO_WritePin+0x6>

10041784 <HAL_GPIO_TogglePin>:
10041784:	6942      	ldr	r2, [r0, #20]
10041786:	0013      	movs	r3, r2
10041788:	400b      	ands	r3, r1
1004178a:	041b      	lsls	r3, r3, #16
1004178c:	4391      	bics	r1, r2
1004178e:	430b      	orrs	r3, r1
10041790:	6183      	str	r3, [r0, #24]
10041792:	4770      	bx	lr

10041794 <I2C_Flush_TXDR>:
10041794:	6803      	ldr	r3, [r0, #0]
10041796:	699a      	ldr	r2, [r3, #24]
10041798:	0792      	lsls	r2, r2, #30
1004179a:	d501      	bpl.n	100417a0 <I2C_Flush_TXDR+0xc>
1004179c:	2200      	movs	r2, #0
1004179e:	629a      	str	r2, [r3, #40]	@ 0x28
100417a0:	2201      	movs	r2, #1
100417a2:	6999      	ldr	r1, [r3, #24]
100417a4:	4211      	tst	r1, r2
100417a6:	d102      	bne.n	100417ae <I2C_Flush_TXDR+0x1a>
100417a8:	6999      	ldr	r1, [r3, #24]
100417aa:	430a      	orrs	r2, r1
100417ac:	619a      	str	r2, [r3, #24]
100417ae:	4770      	bx	lr

100417b0 <I2C_Disable_IRQ>:
100417b0:	2300      	movs	r3, #0
100417b2:	b510      	push	{r4, lr}
100417b4:	07ca      	lsls	r2, r1, #31
100417b6:	d508      	bpl.n	100417ca <I2C_Disable_IRQ+0x1a>
100417b8:	0003      	movs	r3, r0
100417ba:	3341      	adds	r3, #65	@ 0x41
100417bc:	781a      	ldrb	r2, [r3, #0]
100417be:	2328      	movs	r3, #40	@ 0x28
100417c0:	401a      	ands	r2, r3
100417c2:	33ca      	adds	r3, #202	@ 0xca
100417c4:	2a28      	cmp	r2, #40	@ 0x28
100417c6:	d100      	bne.n	100417ca <I2C_Disable_IRQ+0x1a>
100417c8:	3bb0      	subs	r3, #176	@ 0xb0
100417ca:	078a      	lsls	r2, r1, #30
100417cc:	d508      	bpl.n	100417e0 <I2C_Disable_IRQ+0x30>
100417ce:	0002      	movs	r2, r0
100417d0:	2428      	movs	r4, #40	@ 0x28
100417d2:	3241      	adds	r2, #65	@ 0x41
100417d4:	7812      	ldrb	r2, [r2, #0]
100417d6:	4022      	ands	r2, r4
100417d8:	42a2      	cmp	r2, r4
100417da:	d10b      	bne.n	100417f4 <I2C_Disable_IRQ+0x44>
100417dc:	2244      	movs	r2, #68	@ 0x44
100417de:	4313      	orrs	r3, r2
100417e0:	b209      	sxth	r1, r1
100417e2:	2900      	cmp	r1, #0
100417e4:	da01      	bge.n	100417ea <I2C_Disable_IRQ+0x3a>
100417e6:	22b8      	movs	r2, #184	@ 0xb8
100417e8:	4313      	orrs	r3, r2
100417ea:	6801      	ldr	r1, [r0, #0]
100417ec:	680a      	ldr	r2, [r1, #0]
100417ee:	439a      	bics	r2, r3
100417f0:	600a      	str	r2, [r1, #0]
100417f2:	bd10      	pop	{r4, pc}
100417f4:	22f4      	movs	r2, #244	@ 0xf4
100417f6:	e7f2      	b.n	100417de <I2C_Disable_IRQ+0x2e>

100417f8 <HAL_I2C_EV_IRQHandler>:
100417f8:	6803      	ldr	r3, [r0, #0]
100417fa:	b510      	push	{r4, lr}
100417fc:	6999      	ldr	r1, [r3, #24]
100417fe:	681a      	ldr	r2, [r3, #0]
10041800:	6b43      	ldr	r3, [r0, #52]	@ 0x34
10041802:	2b00      	cmp	r3, #0
10041804:	d000      	beq.n	10041808 <HAL_I2C_EV_IRQHandler+0x10>
10041806:	4798      	blx	r3
10041808:	bd10      	pop	{r4, pc}

1004180a <HAL_I2C_SlaveTxCpltCallback>:
1004180a:	4770      	bx	lr

1004180c <HAL_I2C_SlaveRxCpltCallback>:
1004180c:	4770      	bx	lr
	...

10041810 <I2C_ITSlaveSeqCplt>:
10041810:	0001      	movs	r1, r0
10041812:	6803      	ldr	r3, [r0, #0]
10041814:	b510      	push	{r4, lr}
10041816:	0004      	movs	r4, r0
10041818:	2000      	movs	r0, #0
1004181a:	681a      	ldr	r2, [r3, #0]
1004181c:	3142      	adds	r1, #66	@ 0x42
1004181e:	7008      	strb	r0, [r1, #0]
10041820:	0451      	lsls	r1, r2, #17
10041822:	d518      	bpl.n	10041856 <I2C_ITSlaveSeqCplt+0x46>
10041824:	681a      	ldr	r2, [r3, #0]
10041826:	4918      	ldr	r1, [pc, #96]	@ (10041888 <I2C_ITSlaveSeqCplt+0x78>)
10041828:	400a      	ands	r2, r1
1004182a:	601a      	str	r2, [r3, #0]
1004182c:	0023      	movs	r3, r4
1004182e:	3341      	adds	r3, #65	@ 0x41
10041830:	781a      	ldrb	r2, [r3, #0]
10041832:	2a29      	cmp	r2, #41	@ 0x29
10041834:	d114      	bne.n	10041860 <I2C_ITSlaveSeqCplt+0x50>
10041836:	3a01      	subs	r2, #1
10041838:	701a      	strb	r2, [r3, #0]
1004183a:	2321      	movs	r3, #33	@ 0x21
1004183c:	0020      	movs	r0, r4
1004183e:	6323      	str	r3, [r4, #48]	@ 0x30
10041840:	2101      	movs	r1, #1
10041842:	f7ff ffb5 	bl	100417b0 <I2C_Disable_IRQ>
10041846:	0023      	movs	r3, r4
10041848:	2200      	movs	r2, #0
1004184a:	3340      	adds	r3, #64	@ 0x40
1004184c:	0020      	movs	r0, r4
1004184e:	701a      	strb	r2, [r3, #0]
10041850:	f7ff ffdb 	bl	1004180a <HAL_I2C_SlaveTxCpltCallback>
10041854:	bd10      	pop	{r4, pc}
10041856:	0412      	lsls	r2, r2, #16
10041858:	d5e8      	bpl.n	1004182c <I2C_ITSlaveSeqCplt+0x1c>
1004185a:	681a      	ldr	r2, [r3, #0]
1004185c:	490b      	ldr	r1, [pc, #44]	@ (1004188c <I2C_ITSlaveSeqCplt+0x7c>)
1004185e:	e7e3      	b.n	10041828 <I2C_ITSlaveSeqCplt+0x18>
10041860:	781a      	ldrb	r2, [r3, #0]
10041862:	2a2a      	cmp	r2, #42	@ 0x2a
10041864:	d1f6      	bne.n	10041854 <I2C_ITSlaveSeqCplt+0x44>
10041866:	3a02      	subs	r2, #2
10041868:	701a      	strb	r2, [r3, #0]
1004186a:	2322      	movs	r3, #34	@ 0x22
1004186c:	0020      	movs	r0, r4
1004186e:	6323      	str	r3, [r4, #48]	@ 0x30
10041870:	2102      	movs	r1, #2
10041872:	f7ff ff9d 	bl	100417b0 <I2C_Disable_IRQ>
10041876:	0023      	movs	r3, r4
10041878:	2200      	movs	r2, #0
1004187a:	3340      	adds	r3, #64	@ 0x40
1004187c:	0020      	movs	r0, r4
1004187e:	701a      	strb	r2, [r3, #0]
10041880:	f7ff ffc4 	bl	1004180c <HAL_I2C_SlaveRxCpltCallback>
10041884:	e7e6      	b.n	10041854 <I2C_ITSlaveSeqCplt+0x44>
10041886:	46c0      	nop			@ (mov r8, r8)
10041888:	ffffbfff 	.word	0xffffbfff
1004188c:	ffff7fff 	.word	0xffff7fff

10041890 <HAL_I2C_AddrCallback>:
10041890:	4770      	bx	lr

10041892 <I2C_ITAddrCplt.constprop.0>:
10041892:	0003      	movs	r3, r0
10041894:	b5f7      	push	{r0, r1, r2, r4, r5, r6, r7, lr}
10041896:	2228      	movs	r2, #40	@ 0x28
10041898:	3341      	adds	r3, #65	@ 0x41
1004189a:	781b      	ldrb	r3, [r3, #0]
1004189c:	0004      	movs	r4, r0
1004189e:	6801      	ldr	r1, [r0, #0]
100418a0:	4013      	ands	r3, r2
100418a2:	4293      	cmp	r3, r2
100418a4:	d13c      	bne.n	10041920 <I2C_ITAddrCplt.constprop.0+0x8e>
100418a6:	27fe      	movs	r7, #254	@ 0xfe
100418a8:	698d      	ldr	r5, [r1, #24]
100418aa:	698e      	ldr	r6, [r1, #24]
100418ac:	688b      	ldr	r3, [r1, #8]
100418ae:	68ca      	ldr	r2, [r1, #12]
100418b0:	03ed      	lsls	r5, r5, #15
100418b2:	9201      	str	r2, [sp, #4]
100418b4:	68c2      	ldr	r2, [r0, #12]
100418b6:	0c36      	lsrs	r6, r6, #16
100418b8:	0fed      	lsrs	r5, r5, #31
100418ba:	403e      	ands	r6, r7
100418bc:	2a02      	cmp	r2, #2
100418be:	d125      	bne.n	1004190c <I2C_ITAddrCplt.constprop.0+0x7a>
100418c0:	059b      	lsls	r3, r3, #22
100418c2:	0d9a      	lsrs	r2, r3, #22
100418c4:	0f5b      	lsrs	r3, r3, #29
100418c6:	4073      	eors	r3, r6
100418c8:	0018      	movs	r0, r3
100418ca:	2606      	movs	r6, #6
100418cc:	4030      	ands	r0, r6
100418ce:	4233      	tst	r3, r6
100418d0:	d110      	bne.n	100418f4 <I2C_ITAddrCplt.constprop.0+0x62>
100418d2:	6ca3      	ldr	r3, [r4, #72]	@ 0x48
100418d4:	3301      	adds	r3, #1
100418d6:	64a3      	str	r3, [r4, #72]	@ 0x48
100418d8:	6ca3      	ldr	r3, [r4, #72]	@ 0x48
100418da:	2b02      	cmp	r3, #2
100418dc:	d109      	bne.n	100418f2 <I2C_ITAddrCplt.constprop.0+0x60>
100418de:	199b      	adds	r3, r3, r6
100418e0:	64a0      	str	r0, [r4, #72]	@ 0x48
100418e2:	61cb      	str	r3, [r1, #28]
100418e4:	0023      	movs	r3, r4
100418e6:	3340      	adds	r3, #64	@ 0x40
100418e8:	7018      	strb	r0, [r3, #0]
100418ea:	0029      	movs	r1, r5
100418ec:	0020      	movs	r0, r4
100418ee:	f7ff ffcf 	bl	10041890 <HAL_I2C_AddrCallback>
100418f2:	bdf7      	pop	{r0, r1, r2, r4, r5, r6, r7, pc}
100418f4:	2180      	movs	r1, #128	@ 0x80
100418f6:	0020      	movs	r0, r4
100418f8:	0209      	lsls	r1, r1, #8
100418fa:	f7ff ff59 	bl	100417b0 <I2C_Disable_IRQ>
100418fe:	0023      	movs	r3, r4
10041900:	2200      	movs	r2, #0
10041902:	3340      	adds	r3, #64	@ 0x40
10041904:	701a      	strb	r2, [r3, #0]
10041906:	9a01      	ldr	r2, [sp, #4]
10041908:	403a      	ands	r2, r7
1004190a:	e7ee      	b.n	100418ea <I2C_ITAddrCplt.constprop.0+0x58>
1004190c:	2180      	movs	r1, #128	@ 0x80
1004190e:	0209      	lsls	r1, r1, #8
10041910:	f7ff ff4e 	bl	100417b0 <I2C_Disable_IRQ>
10041914:	0023      	movs	r3, r4
10041916:	2200      	movs	r2, #0
10041918:	3340      	adds	r3, #64	@ 0x40
1004191a:	701a      	strb	r2, [r3, #0]
1004191c:	0032      	movs	r2, r6
1004191e:	e7e4      	b.n	100418ea <I2C_ITAddrCplt.constprop.0+0x58>
10041920:	2308      	movs	r3, #8
10041922:	61cb      	str	r3, [r1, #28]
10041924:	2300      	movs	r3, #0
10041926:	3440      	adds	r4, #64	@ 0x40
10041928:	7023      	strb	r3, [r4, #0]
1004192a:	e7e2      	b.n	100418f2 <I2C_ITAddrCplt.constprop.0+0x60>

1004192c <HAL_I2C_ListenCpltCallback>:
1004192c:	4770      	bx	lr
	...

10041930 <I2C_ITListenCplt>:
10041930:	4b18      	ldr	r3, [pc, #96]	@ (10041994 <I2C_ITListenCplt+0x64>)
10041932:	b510      	push	{r4, lr}
10041934:	62c3      	str	r3, [r0, #44]	@ 0x2c
10041936:	2300      	movs	r3, #0
10041938:	0002      	movs	r2, r0
1004193a:	6303      	str	r3, [r0, #48]	@ 0x30
1004193c:	0004      	movs	r4, r0
1004193e:	2020      	movs	r0, #32
10041940:	3241      	adds	r2, #65	@ 0x41
10041942:	7010      	strb	r0, [r2, #0]
10041944:	7053      	strb	r3, [r2, #1]
10041946:	2204      	movs	r2, #4
10041948:	6363      	str	r3, [r4, #52]	@ 0x34
1004194a:	4211      	tst	r1, r2
1004194c:	d012      	beq.n	10041974 <I2C_ITListenCplt+0x44>
1004194e:	6823      	ldr	r3, [r4, #0]
10041950:	6a59      	ldr	r1, [r3, #36]	@ 0x24
10041952:	6a63      	ldr	r3, [r4, #36]	@ 0x24
10041954:	7019      	strb	r1, [r3, #0]
10041956:	6a63      	ldr	r3, [r4, #36]	@ 0x24
10041958:	3301      	adds	r3, #1
1004195a:	6263      	str	r3, [r4, #36]	@ 0x24
1004195c:	8d23      	ldrh	r3, [r4, #40]	@ 0x28
1004195e:	2b00      	cmp	r3, #0
10041960:	d008      	beq.n	10041974 <I2C_ITListenCplt+0x44>
10041962:	3b01      	subs	r3, #1
10041964:	8523      	strh	r3, [r4, #40]	@ 0x28
10041966:	8d63      	ldrh	r3, [r4, #42]	@ 0x2a
10041968:	3b01      	subs	r3, #1
1004196a:	b29b      	uxth	r3, r3
1004196c:	8563      	strh	r3, [r4, #42]	@ 0x2a
1004196e:	6c63      	ldr	r3, [r4, #68]	@ 0x44
10041970:	431a      	orrs	r2, r3
10041972:	6462      	str	r2, [r4, #68]	@ 0x44
10041974:	0020      	movs	r0, r4
10041976:	4908      	ldr	r1, [pc, #32]	@ (10041998 <I2C_ITListenCplt+0x68>)
10041978:	f7ff ff1a 	bl	100417b0 <I2C_Disable_IRQ>
1004197c:	2210      	movs	r2, #16
1004197e:	6823      	ldr	r3, [r4, #0]
10041980:	0020      	movs	r0, r4
10041982:	61da      	str	r2, [r3, #28]
10041984:	0023      	movs	r3, r4
10041986:	2200      	movs	r2, #0
10041988:	3340      	adds	r3, #64	@ 0x40
1004198a:	701a      	strb	r2, [r3, #0]
1004198c:	f7ff ffce 	bl	1004192c <HAL_I2C_ListenCpltCallback>
10041990:	bd10      	pop	{r4, pc}
10041992:	46c0      	nop			@ (mov r8, r8)
10041994:	ffff0000 	.word	0xffff0000
10041998:	00008003 	.word	0x00008003

1004199c <HAL_I2C_ErrorCallback>:
1004199c:	4770      	bx	lr

1004199e <HAL_I2C_AbortCpltCallback>:
1004199e:	4770      	bx	lr

100419a0 <I2C_TreatErrorCallback>:
100419a0:	0001      	movs	r1, r0
100419a2:	0002      	movs	r2, r0
100419a4:	b510      	push	{r4, lr}
100419a6:	3141      	adds	r1, #65	@ 0x41
100419a8:	780c      	ldrb	r4, [r1, #0]
100419aa:	2300      	movs	r3, #0
100419ac:	3240      	adds	r2, #64	@ 0x40
100419ae:	2c60      	cmp	r4, #96	@ 0x60
100419b0:	d106      	bne.n	100419c0 <I2C_TreatErrorCallback+0x20>
100419b2:	3c40      	subs	r4, #64	@ 0x40
100419b4:	700c      	strb	r4, [r1, #0]
100419b6:	6303      	str	r3, [r0, #48]	@ 0x30
100419b8:	7013      	strb	r3, [r2, #0]
100419ba:	f7ff fff0 	bl	1004199e <HAL_I2C_AbortCpltCallback>
100419be:	bd10      	pop	{r4, pc}
100419c0:	6303      	str	r3, [r0, #48]	@ 0x30
100419c2:	7013      	strb	r3, [r2, #0]
100419c4:	f7ff ffea 	bl	1004199c <HAL_I2C_ErrorCallback>
100419c8:	e7f9      	b.n	100419be <I2C_TreatErrorCallback+0x1e>
	...

100419cc <I2C_ITError>:
100419cc:	b570      	push	{r4, r5, r6, lr}
100419ce:	0005      	movs	r5, r0
100419d0:	2200      	movs	r2, #0
100419d2:	0004      	movs	r4, r0
100419d4:	3541      	adds	r5, #65	@ 0x41
100419d6:	3042      	adds	r0, #66	@ 0x42
100419d8:	782b      	ldrb	r3, [r5, #0]
100419da:	7002      	strb	r2, [r0, #0]
100419dc:	483a      	ldr	r0, [pc, #232]	@ (10041ac8 <I2C_ITError+0xfc>)
100419de:	3b28      	subs	r3, #40	@ 0x28
100419e0:	62e0      	str	r0, [r4, #44]	@ 0x2c
100419e2:	8562      	strh	r2, [r4, #42]	@ 0x2a
100419e4:	6c62      	ldr	r2, [r4, #68]	@ 0x44
100419e6:	430a      	orrs	r2, r1
100419e8:	6462      	str	r2, [r4, #68]	@ 0x44
100419ea:	2b02      	cmp	r3, #2
100419ec:	d82b      	bhi.n	10041a46 <I2C_ITError+0x7a>
100419ee:	2103      	movs	r1, #3
100419f0:	0020      	movs	r0, r4
100419f2:	f7ff fedd 	bl	100417b0 <I2C_Disable_IRQ>
100419f6:	2328      	movs	r3, #40	@ 0x28
100419f8:	702b      	strb	r3, [r5, #0]
100419fa:	4b34      	ldr	r3, [pc, #208]	@ (10041acc <I2C_ITError+0x100>)
100419fc:	6ba0      	ldr	r0, [r4, #56]	@ 0x38
100419fe:	6363      	str	r3, [r4, #52]	@ 0x34
10041a00:	6b23      	ldr	r3, [r4, #48]	@ 0x30
10041a02:	2800      	cmp	r0, #0
10041a04:	d040      	beq.n	10041a88 <I2C_ITError+0xbc>
10041a06:	001a      	movs	r2, r3
10041a08:	2110      	movs	r1, #16
10041a0a:	3a11      	subs	r2, #17
10041a0c:	438a      	bics	r2, r1
10041a0e:	d13b      	bne.n	10041a88 <I2C_ITError+0xbc>
10041a10:	6823      	ldr	r3, [r4, #0]
10041a12:	681a      	ldr	r2, [r3, #0]
10041a14:	0452      	lsls	r2, r2, #17
10041a16:	d503      	bpl.n	10041a20 <I2C_ITError+0x54>
10041a18:	681a      	ldr	r2, [r3, #0]
10041a1a:	492d      	ldr	r1, [pc, #180]	@ (10041ad0 <I2C_ITError+0x104>)
10041a1c:	400a      	ands	r2, r1
10041a1e:	601a      	str	r2, [r3, #0]
10041a20:	f7ff fe05 	bl	1004162e <HAL_DMA_GetState>
10041a24:	2801      	cmp	r0, #1
10041a26:	d02b      	beq.n	10041a80 <I2C_ITError+0xb4>
10041a28:	6ba0      	ldr	r0, [r4, #56]	@ 0x38
10041a2a:	4b2a      	ldr	r3, [pc, #168]	@ (10041ad4 <I2C_ITError+0x108>)
10041a2c:	2200      	movs	r2, #0
10041a2e:	6383      	str	r3, [r0, #56]	@ 0x38
10041a30:	0023      	movs	r3, r4
10041a32:	3340      	adds	r3, #64	@ 0x40
10041a34:	701a      	strb	r2, [r3, #0]
10041a36:	f7ff fdd7 	bl	100415e8 <HAL_DMA_Abort_IT>
10041a3a:	2800      	cmp	r0, #0
10041a3c:	d023      	beq.n	10041a86 <I2C_ITError+0xba>
10041a3e:	6ba0      	ldr	r0, [r4, #56]	@ 0x38
10041a40:	6b83      	ldr	r3, [r0, #56]	@ 0x38
10041a42:	4798      	blx	r3
10041a44:	e01f      	b.n	10041a86 <I2C_ITError+0xba>
10041a46:	0020      	movs	r0, r4
10041a48:	4923      	ldr	r1, [pc, #140]	@ (10041ad8 <I2C_ITError+0x10c>)
10041a4a:	f7ff feb1 	bl	100417b0 <I2C_Disable_IRQ>
10041a4e:	0020      	movs	r0, r4
10041a50:	f7ff fea0 	bl	10041794 <I2C_Flush_TXDR>
10041a54:	782b      	ldrb	r3, [r5, #0]
10041a56:	2b60      	cmp	r3, #96	@ 0x60
10041a58:	d010      	beq.n	10041a7c <I2C_ITError+0xb0>
10041a5a:	2220      	movs	r2, #32
10041a5c:	702a      	strb	r2, [r5, #0]
10041a5e:	6823      	ldr	r3, [r4, #0]
10041a60:	6999      	ldr	r1, [r3, #24]
10041a62:	4211      	tst	r1, r2
10041a64:	d00a      	beq.n	10041a7c <I2C_ITError+0xb0>
10041a66:	6999      	ldr	r1, [r3, #24]
10041a68:	3a10      	subs	r2, #16
10041a6a:	4211      	tst	r1, r2
10041a6c:	d004      	beq.n	10041a78 <I2C_ITError+0xac>
10041a6e:	61da      	str	r2, [r3, #28]
10041a70:	6c61      	ldr	r1, [r4, #68]	@ 0x44
10041a72:	3a0c      	subs	r2, #12
10041a74:	430a      	orrs	r2, r1
10041a76:	6462      	str	r2, [r4, #68]	@ 0x44
10041a78:	2220      	movs	r2, #32
10041a7a:	61da      	str	r2, [r3, #28]
10041a7c:	2300      	movs	r3, #0
10041a7e:	e7bd      	b.n	100419fc <I2C_ITError+0x30>
10041a80:	0020      	movs	r0, r4
10041a82:	f7ff ff8d 	bl	100419a0 <I2C_TreatErrorCallback>
10041a86:	bd70      	pop	{r4, r5, r6, pc}
10041a88:	6be0      	ldr	r0, [r4, #60]	@ 0x3c
10041a8a:	2800      	cmp	r0, #0
10041a8c:	d0f8      	beq.n	10041a80 <I2C_ITError+0xb4>
10041a8e:	2210      	movs	r2, #16
10041a90:	3b12      	subs	r3, #18
10041a92:	4393      	bics	r3, r2
10041a94:	d1f4      	bne.n	10041a80 <I2C_ITError+0xb4>
10041a96:	6823      	ldr	r3, [r4, #0]
10041a98:	681a      	ldr	r2, [r3, #0]
10041a9a:	0412      	lsls	r2, r2, #16
10041a9c:	d503      	bpl.n	10041aa6 <I2C_ITError+0xda>
10041a9e:	681a      	ldr	r2, [r3, #0]
10041aa0:	490e      	ldr	r1, [pc, #56]	@ (10041adc <I2C_ITError+0x110>)
10041aa2:	400a      	ands	r2, r1
10041aa4:	601a      	str	r2, [r3, #0]
10041aa6:	f7ff fdc2 	bl	1004162e <HAL_DMA_GetState>
10041aaa:	2801      	cmp	r0, #1
10041aac:	d0e8      	beq.n	10041a80 <I2C_ITError+0xb4>
10041aae:	6be0      	ldr	r0, [r4, #60]	@ 0x3c
10041ab0:	4b08      	ldr	r3, [pc, #32]	@ (10041ad4 <I2C_ITError+0x108>)
10041ab2:	2200      	movs	r2, #0
10041ab4:	6383      	str	r3, [r0, #56]	@ 0x38
10041ab6:	0023      	movs	r3, r4
10041ab8:	3340      	adds	r3, #64	@ 0x40
10041aba:	701a      	strb	r2, [r3, #0]
10041abc:	f7ff fd94 	bl	100415e8 <HAL_DMA_Abort_IT>
10041ac0:	2800      	cmp	r0, #0
10041ac2:	d0e0      	beq.n	10041a86 <I2C_ITError+0xba>
10041ac4:	6be0      	ldr	r0, [r4, #60]	@ 0x3c
10041ac6:	e7bb      	b.n	10041a40 <I2C_ITError+0x74>
10041ac8:	ffff0000 	.word	0xffff0000
10041acc:	10041d09 	.word	0x10041d09
10041ad0:	ffffbfff 	.word	0xffffbfff
10041ad4:	10041e25 	.word	0x10041e25
10041ad8:	00008003 	.word	0x00008003
10041adc:	ffff7fff 	.word	0xffff7fff

10041ae0 <HAL_I2C_ER_IRQHandler>:
10041ae0:	b570      	push	{r4, r5, r6, lr}
10041ae2:	2580      	movs	r5, #128	@ 0x80
10041ae4:	6803      	ldr	r3, [r0, #0]
10041ae6:	006d      	lsls	r5, r5, #1
10041ae8:	6999      	ldr	r1, [r3, #24]
10041aea:	681a      	ldr	r2, [r3, #0]
10041aec:	4229      	tst	r1, r5
10041aee:	d006      	beq.n	10041afe <HAL_I2C_ER_IRQHandler+0x1e>
10041af0:	0614      	lsls	r4, r2, #24
10041af2:	d504      	bpl.n	10041afe <HAL_I2C_ER_IRQHandler+0x1e>
10041af4:	2401      	movs	r4, #1
10041af6:	6c46      	ldr	r6, [r0, #68]	@ 0x44
10041af8:	4334      	orrs	r4, r6
10041afa:	6444      	str	r4, [r0, #68]	@ 0x44
10041afc:	61dd      	str	r5, [r3, #28]
10041afe:	2580      	movs	r5, #128	@ 0x80
10041b00:	00ed      	lsls	r5, r5, #3
10041b02:	4229      	tst	r1, r5
10041b04:	d006      	beq.n	10041b14 <HAL_I2C_ER_IRQHandler+0x34>
10041b06:	0614      	lsls	r4, r2, #24
10041b08:	d504      	bpl.n	10041b14 <HAL_I2C_ER_IRQHandler+0x34>
10041b0a:	2408      	movs	r4, #8
10041b0c:	6c46      	ldr	r6, [r0, #68]	@ 0x44
10041b0e:	4334      	orrs	r4, r6
10041b10:	6444      	str	r4, [r0, #68]	@ 0x44
10041b12:	61dd      	str	r5, [r3, #28]
10041b14:	2480      	movs	r4, #128	@ 0x80
10041b16:	00a4      	lsls	r4, r4, #2
10041b18:	4221      	tst	r1, r4
10041b1a:	d006      	beq.n	10041b2a <HAL_I2C_ER_IRQHandler+0x4a>
10041b1c:	0612      	lsls	r2, r2, #24
10041b1e:	d504      	bpl.n	10041b2a <HAL_I2C_ER_IRQHandler+0x4a>
10041b20:	2202      	movs	r2, #2
10041b22:	6c41      	ldr	r1, [r0, #68]	@ 0x44
10041b24:	430a      	orrs	r2, r1
10041b26:	6442      	str	r2, [r0, #68]	@ 0x44
10041b28:	61dc      	str	r4, [r3, #28]
10041b2a:	230b      	movs	r3, #11
10041b2c:	6c41      	ldr	r1, [r0, #68]	@ 0x44
10041b2e:	4219      	tst	r1, r3
10041b30:	d001      	beq.n	10041b36 <HAL_I2C_ER_IRQHandler+0x56>
10041b32:	f7ff ff4b 	bl	100419cc <I2C_ITError>
10041b36:	bd70      	pop	{r4, r5, r6, pc}

10041b38 <I2C_ITSlaveCplt.constprop.0>:
10041b38:	b5f7      	push	{r0, r1, r2, r4, r5, r6, r7, lr}
10041b3a:	0006      	movs	r6, r0
10041b3c:	2220      	movs	r2, #32
10041b3e:	6805      	ldr	r5, [r0, #0]
10041b40:	3641      	adds	r6, #65	@ 0x41
10041b42:	682b      	ldr	r3, [r5, #0]
10041b44:	0004      	movs	r4, r0
10041b46:	9300      	str	r3, [sp, #0]
10041b48:	6ac3      	ldr	r3, [r0, #44]	@ 0x2c
10041b4a:	000f      	movs	r7, r1
10041b4c:	9301      	str	r3, [sp, #4]
10041b4e:	7833      	ldrb	r3, [r6, #0]
10041b50:	61ea      	str	r2, [r5, #28]
10041b52:	b2d8      	uxtb	r0, r3
10041b54:	2b21      	cmp	r3, #33	@ 0x21
10041b56:	d009      	beq.n	10041b6c <I2C_ITSlaveCplt.constprop.0+0x34>
10041b58:	3822      	subs	r0, #34	@ 0x22
10041b5a:	2808      	cmp	r0, #8
10041b5c:	d80c      	bhi.n	10041b78 <I2C_ITSlaveCplt.constprop.0+0x40>
10041b5e:	f7fe fad9 	bl	10040114 <__gnu_thumb1_case_uqi>
10041b62:	0b68      	.short	0x0b68
10041b64:	0b0b0b0b 	.word	0x0b0b0b0b
10041b68:	056e      	.short	0x056e
10041b6a:	68          	.byte	0x68
10041b6b:	00          	.byte	0x00
10041b6c:	0020      	movs	r0, r4
10041b6e:	495e      	ldr	r1, [pc, #376]	@ (10041ce8 <I2C_ITSlaveCplt.constprop.0+0x1b0>)
10041b70:	f7ff fe1e 	bl	100417b0 <I2C_Disable_IRQ>
10041b74:	2321      	movs	r3, #33	@ 0x21
10041b76:	6323      	str	r3, [r4, #48]	@ 0x30
10041b78:	2280      	movs	r2, #128	@ 0x80
10041b7a:	686b      	ldr	r3, [r5, #4]
10041b7c:	0212      	lsls	r2, r2, #8
10041b7e:	4313      	orrs	r3, r2
10041b80:	606b      	str	r3, [r5, #4]
10041b82:	686b      	ldr	r3, [r5, #4]
10041b84:	4a59      	ldr	r2, [pc, #356]	@ (10041cec <I2C_ITSlaveCplt.constprop.0+0x1b4>)
10041b86:	0020      	movs	r0, r4
10041b88:	4013      	ands	r3, r2
10041b8a:	606b      	str	r3, [r5, #4]
10041b8c:	f7ff fe02 	bl	10041794 <I2C_Flush_TXDR>
10041b90:	9b00      	ldr	r3, [sp, #0]
10041b92:	045b      	lsls	r3, r3, #17
10041b94:	d559      	bpl.n	10041c4a <I2C_ITSlaveCplt.constprop.0+0x112>
10041b96:	682b      	ldr	r3, [r5, #0]
10041b98:	4a55      	ldr	r2, [pc, #340]	@ (10041cf0 <I2C_ITSlaveCplt.constprop.0+0x1b8>)
10041b9a:	4013      	ands	r3, r2
10041b9c:	602b      	str	r3, [r5, #0]
10041b9e:	6ba3      	ldr	r3, [r4, #56]	@ 0x38
10041ba0:	2b00      	cmp	r3, #0
10041ba2:	d003      	beq.n	10041bac <I2C_ITSlaveCplt.constprop.0+0x74>
10041ba4:	681b      	ldr	r3, [r3, #0]
10041ba6:	685b      	ldr	r3, [r3, #4]
10041ba8:	b29b      	uxth	r3, r3
10041baa:	8563      	strh	r3, [r4, #42]	@ 0x2a
10041bac:	077b      	lsls	r3, r7, #29
10041bae:	d510      	bpl.n	10041bd2 <I2C_ITSlaveCplt.constprop.0+0x9a>
10041bb0:	6a63      	ldr	r3, [r4, #36]	@ 0x24
10041bb2:	6a6a      	ldr	r2, [r5, #36]	@ 0x24
10041bb4:	701a      	strb	r2, [r3, #0]
10041bb6:	6a63      	ldr	r3, [r4, #36]	@ 0x24
10041bb8:	3301      	adds	r3, #1
10041bba:	6263      	str	r3, [r4, #36]	@ 0x24
10041bbc:	8d23      	ldrh	r3, [r4, #40]	@ 0x28
10041bbe:	2b00      	cmp	r3, #0
10041bc0:	d005      	beq.n	10041bce <I2C_ITSlaveCplt.constprop.0+0x96>
10041bc2:	3b01      	subs	r3, #1
10041bc4:	8523      	strh	r3, [r4, #40]	@ 0x28
10041bc6:	8d63      	ldrh	r3, [r4, #42]	@ 0x2a
10041bc8:	3b01      	subs	r3, #1
10041bca:	b29b      	uxth	r3, r3
10041bcc:	8563      	strh	r3, [r4, #42]	@ 0x2a
10041bce:	2304      	movs	r3, #4
10041bd0:	439f      	bics	r7, r3
10041bd2:	8d63      	ldrh	r3, [r4, #42]	@ 0x2a
10041bd4:	2b00      	cmp	r3, #0
10041bd6:	d003      	beq.n	10041be0 <I2C_ITSlaveCplt.constprop.0+0xa8>
10041bd8:	2304      	movs	r3, #4
10041bda:	6c62      	ldr	r2, [r4, #68]	@ 0x44
10041bdc:	4313      	orrs	r3, r2
10041bde:	6463      	str	r3, [r4, #68]	@ 0x44
10041be0:	2310      	movs	r3, #16
10041be2:	421f      	tst	r7, r3
10041be4:	d011      	beq.n	10041c0a <I2C_ITSlaveCplt.constprop.0+0xd2>
10041be6:	9a00      	ldr	r2, [sp, #0]
10041be8:	421a      	tst	r2, r3
10041bea:	d00e      	beq.n	10041c0a <I2C_ITSlaveCplt.constprop.0+0xd2>
10041bec:	8d62      	ldrh	r2, [r4, #42]	@ 0x2a
10041bee:	2a00      	cmp	r2, #0
10041bf0:	d149      	bne.n	10041c86 <I2C_ITSlaveCplt.constprop.0+0x14e>
10041bf2:	7833      	ldrb	r3, [r6, #0]
10041bf4:	2b28      	cmp	r3, #40	@ 0x28
10041bf6:	d133      	bne.n	10041c60 <I2C_ITSlaveCplt.constprop.0+0x128>
10041bf8:	2380      	movs	r3, #128	@ 0x80
10041bfa:	9a01      	ldr	r2, [sp, #4]
10041bfc:	049b      	lsls	r3, r3, #18
10041bfe:	429a      	cmp	r2, r3
10041c00:	d12e      	bne.n	10041c60 <I2C_ITSlaveCplt.constprop.0+0x128>
10041c02:	0039      	movs	r1, r7
10041c04:	0020      	movs	r0, r4
10041c06:	f7ff fe93 	bl	10041930 <I2C_ITListenCplt>
10041c0a:	0023      	movs	r3, r4
10041c0c:	2200      	movs	r2, #0
10041c0e:	3342      	adds	r3, #66	@ 0x42
10041c10:	701a      	strb	r2, [r3, #0]
10041c12:	6c65      	ldr	r5, [r4, #68]	@ 0x44
10041c14:	6362      	str	r2, [r4, #52]	@ 0x34
10041c16:	4295      	cmp	r5, r2
10041c18:	d044      	beq.n	10041ca4 <I2C_ITSlaveCplt.constprop.0+0x16c>
10041c1a:	0020      	movs	r0, r4
10041c1c:	6c61      	ldr	r1, [r4, #68]	@ 0x44
10041c1e:	f7ff fed5 	bl	100419cc <I2C_ITError>
10041c22:	7833      	ldrb	r3, [r6, #0]
10041c24:	2b28      	cmp	r3, #40	@ 0x28
10041c26:	d103      	bne.n	10041c30 <I2C_ITSlaveCplt.constprop.0+0xf8>
10041c28:	0039      	movs	r1, r7
10041c2a:	0020      	movs	r0, r4
10041c2c:	f7ff fe80 	bl	10041930 <I2C_ITListenCplt>
10041c30:	bdf7      	pop	{r0, r1, r2, r4, r5, r6, r7, pc}
10041c32:	0020      	movs	r0, r4
10041c34:	492f      	ldr	r1, [pc, #188]	@ (10041cf4 <I2C_ITSlaveCplt.constprop.0+0x1bc>)
10041c36:	f7ff fdbb 	bl	100417b0 <I2C_Disable_IRQ>
10041c3a:	2322      	movs	r3, #34	@ 0x22
10041c3c:	e79b      	b.n	10041b76 <I2C_ITSlaveCplt.constprop.0+0x3e>
10041c3e:	0020      	movs	r0, r4
10041c40:	492d      	ldr	r1, [pc, #180]	@ (10041cf8 <I2C_ITSlaveCplt.constprop.0+0x1c0>)
10041c42:	f7ff fdb5 	bl	100417b0 <I2C_Disable_IRQ>
10041c46:	2300      	movs	r3, #0
10041c48:	e795      	b.n	10041b76 <I2C_ITSlaveCplt.constprop.0+0x3e>
10041c4a:	2280      	movs	r2, #128	@ 0x80
10041c4c:	9b00      	ldr	r3, [sp, #0]
10041c4e:	0212      	lsls	r2, r2, #8
10041c50:	4213      	tst	r3, r2
10041c52:	d0ab      	beq.n	10041bac <I2C_ITSlaveCplt.constprop.0+0x74>
10041c54:	682b      	ldr	r3, [r5, #0]
10041c56:	4a29      	ldr	r2, [pc, #164]	@ (10041cfc <I2C_ITSlaveCplt.constprop.0+0x1c4>)
10041c58:	4013      	ands	r3, r2
10041c5a:	602b      	str	r3, [r5, #0]
10041c5c:	6be3      	ldr	r3, [r4, #60]	@ 0x3c
10041c5e:	e79f      	b.n	10041ba0 <I2C_ITSlaveCplt.constprop.0+0x68>
10041c60:	7831      	ldrb	r1, [r6, #0]
10041c62:	2210      	movs	r2, #16
10041c64:	6823      	ldr	r3, [r4, #0]
10041c66:	2929      	cmp	r1, #41	@ 0x29
10041c68:	d10b      	bne.n	10041c82 <I2C_ITSlaveCplt.constprop.0+0x14a>
10041c6a:	4925      	ldr	r1, [pc, #148]	@ (10041d00 <I2C_ITSlaveCplt.constprop.0+0x1c8>)
10041c6c:	9801      	ldr	r0, [sp, #4]
10041c6e:	4288      	cmp	r0, r1
10041c70:	d007      	beq.n	10041c82 <I2C_ITSlaveCplt.constprop.0+0x14a>
10041c72:	0020      	movs	r0, r4
10041c74:	61da      	str	r2, [r3, #28]
10041c76:	f7ff fd8d 	bl	10041794 <I2C_Flush_TXDR>
10041c7a:	0020      	movs	r0, r4
10041c7c:	f7ff fdc8 	bl	10041810 <I2C_ITSlaveSeqCplt>
10041c80:	e7c3      	b.n	10041c0a <I2C_ITSlaveCplt.constprop.0+0xd2>
10041c82:	61da      	str	r2, [r3, #28]
10041c84:	e7c1      	b.n	10041c0a <I2C_ITSlaveCplt.constprop.0+0xd2>
10041c86:	6822      	ldr	r2, [r4, #0]
10041c88:	61d3      	str	r3, [r2, #28]
10041c8a:	2304      	movs	r3, #4
10041c8c:	6c62      	ldr	r2, [r4, #68]	@ 0x44
10041c8e:	4313      	orrs	r3, r2
10041c90:	6463      	str	r3, [r4, #68]	@ 0x44
10041c92:	9a01      	ldr	r2, [sp, #4]
10041c94:	4b1b      	ldr	r3, [pc, #108]	@ (10041d04 <I2C_ITSlaveCplt.constprop.0+0x1cc>)
10041c96:	421a      	tst	r2, r3
10041c98:	d1b7      	bne.n	10041c0a <I2C_ITSlaveCplt.constprop.0+0xd2>
10041c9a:	0020      	movs	r0, r4
10041c9c:	6c61      	ldr	r1, [r4, #68]	@ 0x44
10041c9e:	f7ff fe95 	bl	100419cc <I2C_ITError>
10041ca2:	e7b2      	b.n	10041c0a <I2C_ITSlaveCplt.constprop.0+0xd2>
10041ca4:	0027      	movs	r7, r4
10041ca6:	6ae3      	ldr	r3, [r4, #44]	@ 0x2c
10041ca8:	4a15      	ldr	r2, [pc, #84]	@ (10041d00 <I2C_ITSlaveCplt.constprop.0+0x1c8>)
10041caa:	3740      	adds	r7, #64	@ 0x40
10041cac:	4293      	cmp	r3, r2
10041cae:	d00c      	beq.n	10041cca <I2C_ITSlaveCplt.constprop.0+0x192>
10041cb0:	0020      	movs	r0, r4
10041cb2:	f7ff fdad 	bl	10041810 <I2C_ITSlaveSeqCplt>
10041cb6:	2320      	movs	r3, #32
10041cb8:	4a11      	ldr	r2, [pc, #68]	@ (10041d00 <I2C_ITSlaveCplt.constprop.0+0x1c8>)
10041cba:	0020      	movs	r0, r4
10041cbc:	62e2      	str	r2, [r4, #44]	@ 0x2c
10041cbe:	7033      	strb	r3, [r6, #0]
10041cc0:	6325      	str	r5, [r4, #48]	@ 0x30
10041cc2:	703d      	strb	r5, [r7, #0]
10041cc4:	f7ff fe32 	bl	1004192c <HAL_I2C_ListenCpltCallback>
10041cc8:	e7b2      	b.n	10041c30 <I2C_ITSlaveCplt.constprop.0+0xf8>
10041cca:	2320      	movs	r3, #32
10041ccc:	7832      	ldrb	r2, [r6, #0]
10041cce:	0020      	movs	r0, r4
10041cd0:	7033      	strb	r3, [r6, #0]
10041cd2:	6325      	str	r5, [r4, #48]	@ 0x30
10041cd4:	703d      	strb	r5, [r7, #0]
10041cd6:	2a22      	cmp	r2, #34	@ 0x22
10041cd8:	d102      	bne.n	10041ce0 <I2C_ITSlaveCplt.constprop.0+0x1a8>
10041cda:	f7ff fd97 	bl	1004180c <HAL_I2C_SlaveRxCpltCallback>
10041cde:	e7a7      	b.n	10041c30 <I2C_ITSlaveCplt.constprop.0+0xf8>
10041ce0:	f7ff fd93 	bl	1004180a <HAL_I2C_SlaveTxCpltCallback>
10041ce4:	e7a4      	b.n	10041c30 <I2C_ITSlaveCplt.constprop.0+0xf8>
10041ce6:	46c0      	nop			@ (mov r8, r8)
10041ce8:	00008001 	.word	0x00008001
10041cec:	fe00e800 	.word	0xfe00e800
10041cf0:	ffffbfff 	.word	0xffffbfff
10041cf4:	00008002 	.word	0x00008002
10041cf8:	00008003 	.word	0x00008003
10041cfc:	ffff7fff 	.word	0xffff7fff
10041d00:	ffff0000 	.word	0xffff0000
10041d04:	feffffff 	.word	0xfeffffff

10041d08 <I2C_Slave_ISR_IT>:
10041d08:	b570      	push	{r4, r5, r6, lr}
10041d0a:	0005      	movs	r5, r0
10041d0c:	3540      	adds	r5, #64	@ 0x40
10041d0e:	782e      	ldrb	r6, [r5, #0]
10041d10:	0004      	movs	r4, r0
10041d12:	6ac3      	ldr	r3, [r0, #44]	@ 0x2c
10041d14:	2002      	movs	r0, #2
10041d16:	2e01      	cmp	r6, #1
10041d18:	d00b      	beq.n	10041d32 <I2C_Slave_ISR_IT+0x2a>
10041d1a:	3801      	subs	r0, #1
10041d1c:	7028      	strb	r0, [r5, #0]
10041d1e:	301f      	adds	r0, #31
10041d20:	4201      	tst	r1, r0
10041d22:	d007      	beq.n	10041d34 <I2C_Slave_ISR_IT+0x2c>
10041d24:	4202      	tst	r2, r0
10041d26:	d005      	beq.n	10041d34 <I2C_Slave_ISR_IT+0x2c>
10041d28:	0020      	movs	r0, r4
10041d2a:	f7ff ff05 	bl	10041b38 <I2C_ITSlaveCplt.constprop.0>
10041d2e:	2000      	movs	r0, #0
10041d30:	7028      	strb	r0, [r5, #0]
10041d32:	bd70      	pop	{r4, r5, r6, pc}
10041d34:	2010      	movs	r0, #16
10041d36:	4201      	tst	r1, r0
10041d38:	d02f      	beq.n	10041d9a <I2C_Slave_ISR_IT+0x92>
10041d3a:	4202      	tst	r2, r0
10041d3c:	d02d      	beq.n	10041d9a <I2C_Slave_ISR_IT+0x92>
10041d3e:	8d62      	ldrh	r2, [r4, #42]	@ 0x2a
10041d40:	2a00      	cmp	r2, #0
10041d42:	d11c      	bne.n	10041d7e <I2C_Slave_ISR_IT+0x76>
10041d44:	0022      	movs	r2, r4
10041d46:	3241      	adds	r2, #65	@ 0x41
10041d48:	7810      	ldrb	r0, [r2, #0]
10041d4a:	2828      	cmp	r0, #40	@ 0x28
10041d4c:	d107      	bne.n	10041d5e <I2C_Slave_ISR_IT+0x56>
10041d4e:	2080      	movs	r0, #128	@ 0x80
10041d50:	0480      	lsls	r0, r0, #18
10041d52:	4283      	cmp	r3, r0
10041d54:	d103      	bne.n	10041d5e <I2C_Slave_ISR_IT+0x56>
10041d56:	0020      	movs	r0, r4
10041d58:	f7ff fdea 	bl	10041930 <I2C_ITListenCplt>
10041d5c:	e7e7      	b.n	10041d2e <I2C_Slave_ISR_IT+0x26>
10041d5e:	2110      	movs	r1, #16
10041d60:	7810      	ldrb	r0, [r2, #0]
10041d62:	6822      	ldr	r2, [r4, #0]
10041d64:	61d1      	str	r1, [r2, #28]
10041d66:	2829      	cmp	r0, #41	@ 0x29
10041d68:	d1e1      	bne.n	10041d2e <I2C_Slave_ISR_IT+0x26>
10041d6a:	482c      	ldr	r0, [pc, #176]	@ (10041e1c <I2C_Slave_ISR_IT+0x114>)
10041d6c:	4283      	cmp	r3, r0
10041d6e:	d0de      	beq.n	10041d2e <I2C_Slave_ISR_IT+0x26>
10041d70:	0020      	movs	r0, r4
10041d72:	f7ff fd0f 	bl	10041794 <I2C_Flush_TXDR>
10041d76:	0020      	movs	r0, r4
10041d78:	f7ff fd4a 	bl	10041810 <I2C_ITSlaveSeqCplt>
10041d7c:	e7d7      	b.n	10041d2e <I2C_Slave_ISR_IT+0x26>
10041d7e:	6822      	ldr	r2, [r4, #0]
10041d80:	61d0      	str	r0, [r2, #28]
10041d82:	2204      	movs	r2, #4
10041d84:	6c61      	ldr	r1, [r4, #68]	@ 0x44
10041d86:	430a      	orrs	r2, r1
10041d88:	6462      	str	r2, [r4, #68]	@ 0x44
10041d8a:	4a25      	ldr	r2, [pc, #148]	@ (10041e20 <I2C_Slave_ISR_IT+0x118>)
10041d8c:	4213      	tst	r3, r2
10041d8e:	d1ce      	bne.n	10041d2e <I2C_Slave_ISR_IT+0x26>
10041d90:	0020      	movs	r0, r4
10041d92:	6c61      	ldr	r1, [r4, #68]	@ 0x44
10041d94:	f7ff fe1a 	bl	100419cc <I2C_ITError>
10041d98:	e7c9      	b.n	10041d2e <I2C_Slave_ISR_IT+0x26>
10041d9a:	2004      	movs	r0, #4
10041d9c:	4201      	tst	r1, r0
10041d9e:	d019      	beq.n	10041dd4 <I2C_Slave_ISR_IT+0xcc>
10041da0:	4202      	tst	r2, r0
10041da2:	d017      	beq.n	10041dd4 <I2C_Slave_ISR_IT+0xcc>
10041da4:	8d62      	ldrh	r2, [r4, #42]	@ 0x2a
10041da6:	2a00      	cmp	r2, #0
10041da8:	d00d      	beq.n	10041dc6 <I2C_Slave_ISR_IT+0xbe>
10041daa:	6822      	ldr	r2, [r4, #0]
10041dac:	6a51      	ldr	r1, [r2, #36]	@ 0x24
10041dae:	6a62      	ldr	r2, [r4, #36]	@ 0x24
10041db0:	7011      	strb	r1, [r2, #0]
10041db2:	6a62      	ldr	r2, [r4, #36]	@ 0x24
10041db4:	3201      	adds	r2, #1
10041db6:	6262      	str	r2, [r4, #36]	@ 0x24
10041db8:	8d22      	ldrh	r2, [r4, #40]	@ 0x28
10041dba:	3a01      	subs	r2, #1
10041dbc:	8522      	strh	r2, [r4, #40]	@ 0x28
10041dbe:	8d62      	ldrh	r2, [r4, #42]	@ 0x2a
10041dc0:	3a01      	subs	r2, #1
10041dc2:	b292      	uxth	r2, r2
10041dc4:	8562      	strh	r2, [r4, #42]	@ 0x2a
10041dc6:	8d62      	ldrh	r2, [r4, #42]	@ 0x2a
10041dc8:	2a00      	cmp	r2, #0
10041dca:	d1b0      	bne.n	10041d2e <I2C_Slave_ISR_IT+0x26>
10041dcc:	4a13      	ldr	r2, [pc, #76]	@ (10041e1c <I2C_Slave_ISR_IT+0x114>)
10041dce:	4293      	cmp	r3, r2
10041dd0:	d0ad      	beq.n	10041d2e <I2C_Slave_ISR_IT+0x26>
10041dd2:	e7d0      	b.n	10041d76 <I2C_Slave_ISR_IT+0x6e>
10041dd4:	2008      	movs	r0, #8
10041dd6:	4201      	tst	r1, r0
10041dd8:	d005      	beq.n	10041de6 <I2C_Slave_ISR_IT+0xde>
10041dda:	4202      	tst	r2, r0
10041ddc:	d003      	beq.n	10041de6 <I2C_Slave_ISR_IT+0xde>
10041dde:	0020      	movs	r0, r4
10041de0:	f7ff fd57 	bl	10041892 <I2C_ITAddrCplt.constprop.0>
10041de4:	e7a3      	b.n	10041d2e <I2C_Slave_ISR_IT+0x26>
10041de6:	2002      	movs	r0, #2
10041de8:	4201      	tst	r1, r0
10041dea:	d0a0      	beq.n	10041d2e <I2C_Slave_ISR_IT+0x26>
10041dec:	4202      	tst	r2, r0
10041dee:	d09e      	beq.n	10041d2e <I2C_Slave_ISR_IT+0x26>
10041df0:	8d62      	ldrh	r2, [r4, #42]	@ 0x2a
10041df2:	2a00      	cmp	r2, #0
10041df4:	d00d      	beq.n	10041e12 <I2C_Slave_ISR_IT+0x10a>
10041df6:	6a63      	ldr	r3, [r4, #36]	@ 0x24
10041df8:	6822      	ldr	r2, [r4, #0]
10041dfa:	7819      	ldrb	r1, [r3, #0]
10041dfc:	3301      	adds	r3, #1
10041dfe:	6291      	str	r1, [r2, #40]	@ 0x28
10041e00:	6263      	str	r3, [r4, #36]	@ 0x24
10041e02:	8d63      	ldrh	r3, [r4, #42]	@ 0x2a
10041e04:	3b01      	subs	r3, #1
10041e06:	b29b      	uxth	r3, r3
10041e08:	8563      	strh	r3, [r4, #42]	@ 0x2a
10041e0a:	8d23      	ldrh	r3, [r4, #40]	@ 0x28
10041e0c:	3b01      	subs	r3, #1
10041e0e:	8523      	strh	r3, [r4, #40]	@ 0x28
10041e10:	e78d      	b.n	10041d2e <I2C_Slave_ISR_IT+0x26>
10041e12:	4a03      	ldr	r2, [pc, #12]	@ (10041e20 <I2C_Slave_ISR_IT+0x118>)
10041e14:	4213      	tst	r3, r2
10041e16:	d000      	beq.n	10041e1a <I2C_Slave_ISR_IT+0x112>
10041e18:	e789      	b.n	10041d2e <I2C_Slave_ISR_IT+0x26>
10041e1a:	e7ac      	b.n	10041d76 <I2C_Slave_ISR_IT+0x6e>
10041e1c:	ffff0000 	.word	0xffff0000
10041e20:	feffffff 	.word	0xfeffffff

10041e24 <I2C_DMAAbort>:
10041e24:	6a80      	ldr	r0, [r0, #40]	@ 0x28
10041e26:	b510      	push	{r4, lr}
10041e28:	6b83      	ldr	r3, [r0, #56]	@ 0x38
10041e2a:	2b00      	cmp	r3, #0
10041e2c:	d001      	beq.n	10041e32 <I2C_DMAAbort+0xe>
10041e2e:	2200      	movs	r2, #0
10041e30:	639a      	str	r2, [r3, #56]	@ 0x38
10041e32:	6bc3      	ldr	r3, [r0, #60]	@ 0x3c
10041e34:	2b00      	cmp	r3, #0
10041e36:	d001      	beq.n	10041e3c <I2C_DMAAbort+0x18>
10041e38:	2200      	movs	r2, #0
10041e3a:	639a      	str	r2, [r3, #56]	@ 0x38
10041e3c:	f7ff fdb0 	bl	100419a0 <I2C_TreatErrorCallback>
10041e40:	bd10      	pop	{r4, pc}
	...

10041e44 <HAL_RADIO_ReadRSSI>:
10041e44:	23a9      	movs	r3, #169	@ 0xa9
10041e46:	4a11      	ldr	r2, [pc, #68]	@ (10041e8c <HAL_RADIO_ReadRSSI+0x48>)
10041e48:	009b      	lsls	r3, r3, #2
10041e4a:	58d1      	ldr	r1, [r2, r3]
10041e4c:	3304      	adds	r3, #4
10041e4e:	58d3      	ldr	r3, [r2, r3]
10041e50:	b2c9      	uxtb	r1, r1
10041e52:	061b      	lsls	r3, r3, #24
10041e54:	0c1b      	lsrs	r3, r3, #16
10041e56:	430b      	orrs	r3, r1
10041e58:	21ab      	movs	r1, #171	@ 0xab
10041e5a:	0089      	lsls	r1, r1, #2
10041e5c:	207f      	movs	r0, #127	@ 0x7f
10041e5e:	5851      	ldr	r1, [r2, r1]
10041e60:	2b00      	cmp	r3, #0
10041e62:	d00d      	beq.n	10041e80 <HAL_RADIO_ReadRSSI+0x3c>
10041e64:	290b      	cmp	r1, #11
10041e66:	d80b      	bhi.n	10041e80 <HAL_RADIO_ReadRSSI+0x3c>
10041e68:	2206      	movs	r2, #6
10041e6a:	434a      	muls	r2, r1
10041e6c:	3a77      	subs	r2, #119	@ 0x77
10041e6e:	2b1e      	cmp	r3, #30
10041e70:	d808      	bhi.n	10041e84 <HAL_RADIO_ReadRSSI+0x40>
10041e72:	20a2      	movs	r0, #162	@ 0xa2
10041e74:	30ff      	adds	r0, #255	@ 0xff
10041e76:	4358      	muls	r0, r3
10041e78:	4b05      	ldr	r3, [pc, #20]	@ (10041e90 <HAL_RADIO_ReadRSSI+0x4c>)
10041e7a:	18c0      	adds	r0, r0, r3
10041e7c:	0a80      	lsrs	r0, r0, #10
10041e7e:	1880      	adds	r0, r0, r2
10041e80:	b240      	sxtb	r0, r0
10041e82:	4770      	bx	lr
10041e84:	3206      	adds	r2, #6
10041e86:	085b      	lsrs	r3, r3, #1
10041e88:	e7f1      	b.n	10041e6e <HAL_RADIO_ReadRSSI+0x2a>
10041e8a:	46c0      	nop			@ (mov r8, r8)
10041e8c:	60001400 	.word	0x60001400
10041e90:	000046a0 	.word	0x000046a0

10041e94 <HAL_RADIO_TxRxCallback>:
10041e94:	4770      	bx	lr

10041e96 <HAL_RADIO_TxRxSeqCallback>:
10041e96:	4770      	bx	lr

10041e98 <HAL_RADIO_TXRX_IRQHandler>:
10041e98:	b5f7      	push	{r0, r1, r2, r4, r5, r6, r7, lr}
10041e9a:	24c0      	movs	r4, #192	@ 0xc0
10041e9c:	05e4      	lsls	r4, r4, #23
10041e9e:	69e5      	ldr	r5, [r4, #28]
10041ea0:	6866      	ldr	r6, [r4, #4]
10041ea2:	6066      	str	r6, [r4, #4]
10041ea4:	4335      	orrs	r5, r6
10041ea6:	f000 f8ff 	bl	100420a8 <HAL_RADIO_TIMER_EndOfRadioActivityIsr>
10041eaa:	01ab      	lsls	r3, r5, #6
10041eac:	d534      	bpl.n	10041f18 <HAL_RADIO_TXRX_IRQHandler+0x80>
10041eae:	2240      	movs	r2, #64	@ 0x40
10041eb0:	69e3      	ldr	r3, [r4, #28]
10041eb2:	4c42      	ldr	r4, [pc, #264]	@ (10041fbc <HAL_RADIO_TXRX_IRQHandler+0x124>)
10041eb4:	4013      	ands	r3, r2
10041eb6:	68a0      	ldr	r0, [r4, #8]
10041eb8:	432b      	orrs	r3, r5
10041eba:	60c3      	str	r3, [r0, #12]
10041ebc:	6b03      	ldr	r3, [r0, #48]	@ 0x30
10041ebe:	4798      	blx	r3
10041ec0:	68a3      	ldr	r3, [r4, #8]
10041ec2:	2801      	cmp	r0, #1
10041ec4:	d131      	bne.n	10041f2a <HAL_RADIO_TXRX_IRQHandler+0x92>
10041ec6:	6a9c      	ldr	r4, [r3, #40]	@ 0x28
10041ec8:	4a3d      	ldr	r2, [pc, #244]	@ (10041fc0 <HAL_RADIO_TXRX_IRQHandler+0x128>)
10041eca:	2c00      	cmp	r4, #0
10041ecc:	d12f      	bne.n	10041f2e <HAL_RADIO_TXRX_IRQHandler+0x96>
10041ece:	23c0      	movs	r3, #192	@ 0xc0
10041ed0:	2003      	movs	r0, #3
10041ed2:	05db      	lsls	r3, r3, #23
10041ed4:	68d9      	ldr	r1, [r3, #12]
10041ed6:	4381      	bics	r1, r0
10041ed8:	60d9      	str	r1, [r3, #12]
10041eda:	68d9      	ldr	r1, [r3, #12]
10041edc:	4381      	bics	r1, r0
10041ede:	60d9      	str	r1, [r3, #12]
10041ee0:	4938      	ldr	r1, [pc, #224]	@ (10041fc4 <HAL_RADIO_TXRX_IRQHandler+0x12c>)
10041ee2:	4839      	ldr	r0, [pc, #228]	@ (10041fc8 <HAL_RADIO_TXRX_IRQHandler+0x130>)
10041ee4:	6a8b      	ldr	r3, [r1, #40]	@ 0x28
10041ee6:	4003      	ands	r3, r0
10041ee8:	628b      	str	r3, [r1, #40]	@ 0x28
10041eea:	217f      	movs	r1, #127	@ 0x7f
10041eec:	7913      	ldrb	r3, [r2, #4]
10041eee:	400b      	ands	r3, r1
10041ef0:	7113      	strb	r3, [r2, #4]
10041ef2:	4e32      	ldr	r6, [pc, #200]	@ (10041fbc <HAL_RADIO_TXRX_IRQHandler+0x124>)
10041ef4:	68b7      	ldr	r7, [r6, #8]
10041ef6:	2d00      	cmp	r5, #0
10041ef8:	db01      	blt.n	10041efe <HAL_RADIO_TXRX_IRQHandler+0x66>
10041efa:	006b      	lsls	r3, r5, #1
10041efc:	d557      	bpl.n	10041fae <HAL_RADIO_TXRX_IRQHandler+0x116>
10041efe:	f7ff ffa1 	bl	10041e44 <HAL_RADIO_ReadRSSI>
10041f02:	6178      	str	r0, [r7, #20]
10041f04:	4668      	mov	r0, sp
10041f06:	f000 f8af 	bl	10042068 <HAL_RADIO_TIMER_GetAnchorPoint>
10041f0a:	68b3      	ldr	r3, [r6, #8]
10041f0c:	6118      	str	r0, [r3, #16]
10041f0e:	68b0      	ldr	r0, [r6, #8]
10041f10:	0021      	movs	r1, r4
10041f12:	6b43      	ldr	r3, [r0, #52]	@ 0x34
10041f14:	60b4      	str	r4, [r6, #8]
10041f16:	4798      	blx	r3
10041f18:	0028      	movs	r0, r5
10041f1a:	f7ff ffbb 	bl	10041e94 <HAL_RADIO_TxRxCallback>
10041f1e:	f000 f8c1 	bl	100420a4 <HAL_RADIO_TIMER_RadioTimerIsr>
10041f22:	23c0      	movs	r3, #192	@ 0xc0
10041f24:	05db      	lsls	r3, r3, #23
10041f26:	685b      	ldr	r3, [r3, #4]
10041f28:	bdf7      	pop	{r0, r1, r2, r4, r5, r6, r7, pc}
10041f2a:	6adc      	ldr	r4, [r3, #44]	@ 0x2c
10041f2c:	e7cc      	b.n	10041ec8 <HAL_RADIO_TXRX_IRQHandler+0x30>
10041f2e:	2380      	movs	r3, #128	@ 0x80
10041f30:	7821      	ldrb	r1, [r4, #0]
10041f32:	0026      	movs	r6, r4
10041f34:	430b      	orrs	r3, r1
10041f36:	7113      	strb	r3, [r2, #4]
10041f38:	235c      	movs	r3, #92	@ 0x5c
10041f3a:	277f      	movs	r7, #127	@ 0x7f
10041f3c:	434b      	muls	r3, r1
10041f3e:	4a23      	ldr	r2, [pc, #140]	@ (10041fcc <HAL_RADIO_TXRX_IRQHandler+0x134>)
10041f40:	3638      	adds	r6, #56	@ 0x38
10041f42:	1898      	adds	r0, r3, r2
10041f44:	7802      	ldrb	r2, [r0, #0]
10041f46:	7831      	ldrb	r1, [r6, #0]
10041f48:	403a      	ands	r2, r7
10041f4a:	430a      	orrs	r2, r1
10041f4c:	7002      	strb	r2, [r0, #0]
10041f4e:	0022      	movs	r2, r4
10041f50:	3218      	adds	r2, #24
10041f52:	6042      	str	r2, [r0, #4]
10041f54:	6082      	str	r2, [r0, #8]
10041f56:	481e      	ldr	r0, [pc, #120]	@ (10041fd0 <HAL_RADIO_TXRX_IRQHandler+0x138>)
10041f58:	78a2      	ldrb	r2, [r4, #2]
10041f5a:	181b      	adds	r3, r3, r0
10041f5c:	701a      	strb	r2, [r3, #0]
10041f5e:	7862      	ldrb	r2, [r4, #1]
10041f60:	0753      	lsls	r3, r2, #29
10041f62:	d5c6      	bpl.n	10041ef2 <HAL_RADIO_TXRX_IRQHandler+0x5a>
10041f64:	23c0      	movs	r3, #192	@ 0xc0
10041f66:	05db      	lsls	r3, r3, #23
10041f68:	68d8      	ldr	r0, [r3, #12]
10041f6a:	3f7c      	subs	r7, #124	@ 0x7c
10041f6c:	43b8      	bics	r0, r7
10041f6e:	60d8      	str	r0, [r3, #12]
10041f70:	68d8      	ldr	r0, [r3, #12]
10041f72:	43b8      	bics	r0, r7
10041f74:	60d8      	str	r0, [r3, #12]
10041f76:	0693      	lsls	r3, r2, #26
10041f78:	d511      	bpl.n	10041f9e <HAL_RADIO_TXRX_IRQHandler+0x106>
10041f7a:	f000 f8a4 	bl	100420c6 <HAL_RADIO_TIMER_GetCurrentSysTime>
10041f7e:	0007      	movs	r7, r0
10041f80:	6860      	ldr	r0, [r4, #4]
10041f82:	f000 f897 	bl	100420b4 <HAL_RADIO_TIMER_UsToSystime>
10041f86:	2301      	movs	r3, #1
10041f88:	7831      	ldrb	r1, [r6, #0]
10041f8a:	7862      	ldrb	r2, [r4, #1]
10041f8c:	3980      	subs	r1, #128	@ 0x80
10041f8e:	401a      	ands	r2, r3
10041f90:	424b      	negs	r3, r1
10041f92:	4159      	adcs	r1, r3
10041f94:	19c0      	adds	r0, r0, r7
10041f96:	b2c9      	uxtb	r1, r1
10041f98:	f000 f984 	bl	100422a4 <HAL_RADIO_TIMER_SetRadioTimerValue>
10041f9c:	e7a9      	b.n	10041ef2 <HAL_RADIO_TXRX_IRQHandler+0x5a>
10041f9e:	2301      	movs	r3, #1
10041fa0:	3980      	subs	r1, #128	@ 0x80
10041fa2:	401a      	ands	r2, r3
10041fa4:	424b      	negs	r3, r1
10041fa6:	4159      	adcs	r1, r3
10041fa8:	6860      	ldr	r0, [r4, #4]
10041faa:	b2c9      	uxtb	r1, r1
10041fac:	e7f4      	b.n	10041f98 <HAL_RADIO_TXRX_IRQHandler+0x100>
10041fae:	016b      	lsls	r3, r5, #5
10041fb0:	d5ad      	bpl.n	10041f0e <HAL_RADIO_TXRX_IRQHandler+0x76>
10041fb2:	f7ff ff47 	bl	10041e44 <HAL_RADIO_ReadRSSI>
10041fb6:	6178      	str	r0, [r7, #20]
10041fb8:	e7a9      	b.n	10041f0e <HAL_RADIO_TXRX_IRQHandler+0x76>
10041fba:	46c0      	nop			@ (mov r8, r8)
10041fbc:	200007fc 	.word	0x200007fc
10041fc0:	200000c0 	.word	0x200000c0
10041fc4:	60001800 	.word	0x60001800
10041fc8:	bfffffff 	.word	0xbfffffff
10041fcc:	200000dc 	.word	0x200000dc
10041fd0:	20000107 	.word	0x20000107

10041fd4 <HAL_RADIO_TXRX_SEQ_IRQHandler>:
10041fd4:	b510      	push	{r4, lr}
10041fd6:	f7ff ff5e 	bl	10041e96 <HAL_RADIO_TxRxSeqCallback>
10041fda:	bd10      	pop	{r4, pc}

10041fdc <_calibration_callback>:
10041fdc:	4906      	ldr	r1, [pc, #24]	@ (10041ff8 <_calibration_callback+0x1c>)
10041fde:	780b      	ldrb	r3, [r1, #0]
10041fe0:	2b00      	cmp	r3, #0
10041fe2:	d006      	beq.n	10041ff2 <_calibration_callback+0x16>
10041fe4:	2201      	movs	r2, #1
10041fe6:	4b05      	ldr	r3, [pc, #20]	@ (10041ffc <_calibration_callback+0x20>)
10041fe8:	6918      	ldr	r0, [r3, #16]
10041fea:	4302      	orrs	r2, r0
10041fec:	611a      	str	r2, [r3, #16]
10041fee:	2200      	movs	r2, #0
10041ff0:	609a      	str	r2, [r3, #8]
10041ff2:	2301      	movs	r3, #1
10041ff4:	720b      	strb	r3, [r1, #8]
10041ff6:	4770      	bx	lr
10041ff8:	20000808 	.word	0x20000808
10041ffc:	60001000 	.word	0x60001000

10042000 <_get_system_time_and_machine.constprop.0>:
10042000:	b5f8      	push	{r3, r4, r5, r6, r7, lr}
10042002:	f3ef 8710 	mrs	r7, PRIMASK
10042006:	b672      	cpsid	i
10042008:	4b14      	ldr	r3, [pc, #80]	@ (1004205c <_get_system_time_and_machine.constprop.0+0x5c>)
1004200a:	4e15      	ldr	r6, [pc, #84]	@ (10042060 <_get_system_time_and_machine.constprop.0+0x60>)
1004200c:	691b      	ldr	r3, [r3, #16]
1004200e:	6f34      	ldr	r4, [r6, #112]	@ 0x70
10042010:	6f75      	ldr	r5, [r6, #116]	@ 0x74
10042012:	1d32      	adds	r2, r6, #4
10042014:	6003      	str	r3, [r0, #0]
10042016:	6fd0      	ldr	r0, [r2, #124]	@ 0x7c
10042018:	69f1      	ldr	r1, [r6, #28]
1004201a:	4a12      	ldr	r2, [pc, #72]	@ (10042064 <_get_system_time_and_machine.constprop.0+0x64>)
1004201c:	1a18      	subs	r0, r3, r0
1004201e:	f7fe f84f 	bl	100400c0 <blue_unit_conversion>
10042022:	2300      	movs	r3, #0
10042024:	0002      	movs	r2, r0
10042026:	18a4      	adds	r4, r4, r2
10042028:	415d      	adcs	r5, r3
1004202a:	6ff3      	ldr	r3, [r6, #124]	@ 0x7c
1004202c:	42ab      	cmp	r3, r5
1004202e:	d803      	bhi.n	10042038 <_get_system_time_and_machine.constprop.0+0x38>
10042030:	d10c      	bne.n	1004204c <_get_system_time_and_machine.constprop.0+0x4c>
10042032:	6fb3      	ldr	r3, [r6, #120]	@ 0x78
10042034:	42a3      	cmp	r3, r4
10042036:	d909      	bls.n	1004204c <_get_system_time_and_machine.constprop.0+0x4c>
10042038:	2001      	movs	r0, #1
1004203a:	4a0a      	ldr	r2, [pc, #40]	@ (10042064 <_get_system_time_and_machine.constprop.0+0x64>)
1004203c:	69f1      	ldr	r1, [r6, #28]
1004203e:	4240      	negs	r0, r0
10042040:	f7fe f83e 	bl	100400c0 <blue_unit_conversion>
10042044:	2300      	movs	r3, #0
10042046:	0002      	movs	r2, r0
10042048:	18a4      	adds	r4, r4, r2
1004204a:	415d      	adcs	r5, r3
1004204c:	67b4      	str	r4, [r6, #120]	@ 0x78
1004204e:	67f5      	str	r5, [r6, #124]	@ 0x7c
10042050:	f387 8810 	msr	PRIMASK, r7
10042054:	0029      	movs	r1, r5
10042056:	0020      	movs	r0, r4
10042058:	bdf8      	pop	{r3, r4, r5, r6, r7, pc}
1004205a:	46c0      	nop			@ (mov r8, r8)
1004205c:	60001800 	.word	0x60001800
10042060:	20000808 	.word	0x20000808
10042064:	00000635 	.word	0x00000635

10042068 <HAL_RADIO_TIMER_GetAnchorPoint>:
10042068:	23c0      	movs	r3, #192	@ 0xc0
1004206a:	b537      	push	{r0, r1, r2, r4, r5, lr}
1004206c:	05db      	lsls	r3, r3, #23
1004206e:	0004      	movs	r4, r0
10042070:	a801      	add	r0, sp, #4
10042072:	695d      	ldr	r5, [r3, #20]
10042074:	f7ff ffc4 	bl	10042000 <_get_system_time_and_machine.constprop.0>
10042078:	4b08      	ldr	r3, [pc, #32]	@ (1004209c <HAL_RADIO_TIMER_GetAnchorPoint+0x34>)
1004207a:	6020      	str	r0, [r4, #0]
1004207c:	6061      	str	r1, [r4, #4]
1004207e:	9801      	ldr	r0, [sp, #4]
10042080:	69d9      	ldr	r1, [r3, #28]
10042082:	4a07      	ldr	r2, [pc, #28]	@ (100420a0 <HAL_RADIO_TIMER_GetAnchorPoint+0x38>)
10042084:	1b40      	subs	r0, r0, r5
10042086:	f7fe f81b 	bl	100400c0 <blue_unit_conversion>
1004208a:	2300      	movs	r3, #0
1004208c:	0002      	movs	r2, r0
1004208e:	6820      	ldr	r0, [r4, #0]
10042090:	6861      	ldr	r1, [r4, #4]
10042092:	1a80      	subs	r0, r0, r2
10042094:	4199      	sbcs	r1, r3
10042096:	b003      	add	sp, #12
10042098:	bd30      	pop	{r4, r5, pc}
1004209a:	46c0      	nop			@ (mov r8, r8)
1004209c:	20000808 	.word	0x20000808
100420a0:	00000635 	.word	0x00000635

100420a4 <HAL_RADIO_TIMER_RadioTimerIsr>:
100420a4:	4770      	bx	lr
	...

100420a8 <HAL_RADIO_TIMER_EndOfRadioActivityIsr>:
100420a8:	2200      	movs	r2, #0
100420aa:	4b01      	ldr	r3, [pc, #4]	@ (100420b0 <HAL_RADIO_TIMER_EndOfRadioActivityIsr+0x8>)
100420ac:	701a      	strb	r2, [r3, #0]
100420ae:	4770      	bx	lr
100420b0:	2000086b 	.word	0x2000086b

100420b4 <HAL_RADIO_TIMER_UsToSystime>:
100420b4:	2368      	movs	r3, #104	@ 0x68
100420b6:	0002      	movs	r2, r0
100420b8:	4343      	muls	r3, r0
100420ba:	20db      	movs	r0, #219	@ 0xdb
100420bc:	4350      	muls	r0, r2
100420be:	0a1b      	lsrs	r3, r3, #8
100420c0:	0c00      	lsrs	r0, r0, #16
100420c2:	1818      	adds	r0, r3, r0
100420c4:	4770      	bx	lr

100420c6 <HAL_RADIO_TIMER_GetCurrentSysTime>:
100420c6:	b507      	push	{r0, r1, r2, lr}
100420c8:	a801      	add	r0, sp, #4
100420ca:	f7ff ff99 	bl	10042000 <_get_system_time_and_machine.constprop.0>
100420ce:	b003      	add	sp, #12
100420d0:	bd00      	pop	{pc}
	...

100420d4 <_check_radio_activity.part.0.constprop.0>:
100420d4:	2300      	movs	r3, #0
100420d6:	b5f0      	push	{r4, r5, r6, r7, lr}
100420d8:	4c6a      	ldr	r4, [pc, #424]	@ (10042284 <_check_radio_activity.part.0.constprop.0+0x1b0>)
100420da:	b089      	sub	sp, #36	@ 0x24
100420dc:	6862      	ldr	r2, [r4, #4]
100420de:	9004      	str	r0, [sp, #16]
100420e0:	6aa0      	ldr	r0, [r4, #40]	@ 0x28
100420e2:	6ae1      	ldr	r1, [r4, #44]	@ 0x2c
100420e4:	1812      	adds	r2, r2, r0
100420e6:	414b      	adcs	r3, r1
100420e8:	9202      	str	r2, [sp, #8]
100420ea:	9303      	str	r3, [sp, #12]
100420ec:	f3ef 8310 	mrs	r3, PRIMASK
100420f0:	9305      	str	r3, [sp, #20]
100420f2:	b672      	cpsid	i
100420f4:	f7ff ffe7 	bl	100420c6 <HAL_RADIO_TIMER_GetCurrentSysTime>
100420f8:	6da2      	ldr	r2, [r4, #88]	@ 0x58
100420fa:	6de3      	ldr	r3, [r4, #92]	@ 0x5c
100420fc:	9200      	str	r2, [sp, #0]
100420fe:	9301      	str	r3, [sp, #4]
10042100:	22c8      	movs	r2, #200	@ 0xc8
10042102:	2300      	movs	r3, #0
10042104:	0292      	lsls	r2, r2, #10
10042106:	0006      	movs	r6, r0
10042108:	000f      	movs	r7, r1
1004210a:	9802      	ldr	r0, [sp, #8]
1004210c:	9903      	ldr	r1, [sp, #12]
1004210e:	1812      	adds	r2, r2, r0
10042110:	414b      	adcs	r3, r1
10042112:	9901      	ldr	r1, [sp, #4]
10042114:	428b      	cmp	r3, r1
10042116:	d80f      	bhi.n	10042138 <_check_radio_activity.part.0.constprop.0+0x64>
10042118:	d102      	bne.n	10042120 <_check_radio_activity.part.0.constprop.0+0x4c>
1004211a:	9900      	ldr	r1, [sp, #0]
1004211c:	428a      	cmp	r2, r1
1004211e:	d80b      	bhi.n	10042138 <_check_radio_activity.part.0.constprop.0+0x64>
10042120:	9802      	ldr	r0, [sp, #8]
10042122:	9903      	ldr	r1, [sp, #12]
10042124:	22b9      	movs	r2, #185	@ 0xb9
10042126:	2300      	movs	r3, #0
10042128:	0052      	lsls	r2, r2, #1
1004212a:	1880      	adds	r0, r0, r2
1004212c:	4159      	adcs	r1, r3
1004212e:	428f      	cmp	r7, r1
10042130:	d802      	bhi.n	10042138 <_check_radio_activity.part.0.constprop.0+0x64>
10042132:	d174      	bne.n	1004221e <_check_radio_activity.part.0.constprop.0+0x14a>
10042134:	4286      	cmp	r6, r0
10042136:	d972      	bls.n	1004221e <_check_radio_activity.part.0.constprop.0+0x14a>
10042138:	9a00      	ldr	r2, [sp, #0]
1004213a:	9b01      	ldr	r3, [sp, #4]
1004213c:	204c      	movs	r0, #76	@ 0x4c
1004213e:	4240      	negs	r0, r0
10042140:	17c1      	asrs	r1, r0, #31
10042142:	1880      	adds	r0, r0, r2
10042144:	4159      	adcs	r1, r3
10042146:	220a      	movs	r2, #10
10042148:	2300      	movs	r3, #0
1004214a:	1992      	adds	r2, r2, r6
1004214c:	417b      	adcs	r3, r7
1004214e:	4299      	cmp	r1, r3
10042150:	d804      	bhi.n	1004215c <_check_radio_activity.part.0.constprop.0+0x88>
10042152:	d000      	beq.n	10042156 <_check_radio_activity.part.0.constprop.0+0x82>
10042154:	e08f      	b.n	10042276 <_check_radio_activity.part.0.constprop.0+0x1a2>
10042156:	4290      	cmp	r0, r2
10042158:	d800      	bhi.n	1004215c <_check_radio_activity.part.0.constprop.0+0x88>
1004215a:	e08c      	b.n	10042276 <_check_radio_activity.part.0.constprop.0+0x1a2>
1004215c:	0022      	movs	r2, r4
1004215e:	323c      	adds	r2, #60	@ 0x3c
10042160:	7816      	ldrb	r6, [r2, #0]
10042162:	0022      	movs	r2, r4
10042164:	0023      	movs	r3, r4
10042166:	3264      	adds	r2, #100	@ 0x64
10042168:	7812      	ldrb	r2, [r2, #0]
1004216a:	3360      	adds	r3, #96	@ 0x60
1004216c:	781b      	ldrb	r3, [r3, #0]
1004216e:	2a00      	cmp	r2, #0
10042170:	d05c      	beq.n	1004222c <_check_radio_activity.part.0.constprop.0+0x158>
10042172:	2b00      	cmp	r3, #0
10042174:	d058      	beq.n	10042228 <_check_radio_activity.part.0.constprop.0+0x154>
10042176:	3438      	adds	r4, #56	@ 0x38
10042178:	a807      	add	r0, sp, #28
1004217a:	7824      	ldrb	r4, [r4, #0]
1004217c:	f7ff ff40 	bl	10042000 <_get_system_time_and_machine.constprop.0>
10042180:	9b00      	ldr	r3, [sp, #0]
10042182:	4d40      	ldr	r5, [pc, #256]	@ (10042284 <_check_radio_activity.part.0.constprop.0+0x1b0>)
10042184:	1a1f      	subs	r7, r3, r0
10042186:	4a40      	ldr	r2, [pc, #256]	@ (10042288 <_check_radio_activity.part.0.constprop.0+0x1b4>)
10042188:	0038      	movs	r0, r7
1004218a:	69a9      	ldr	r1, [r5, #24]
1004218c:	f7fd ff98 	bl	100400c0 <blue_unit_conversion>
10042190:	6eab      	ldr	r3, [r5, #104]	@ 0x68
10042192:	4a3e      	ldr	r2, [pc, #248]	@ (1004228c <_check_radio_activity.part.0.constprop.0+0x1b8>)
10042194:	33c8      	adds	r3, #200	@ 0xc8
10042196:	199b      	adds	r3, r3, r6
10042198:	429f      	cmp	r7, r3
1004219a:	d94d      	bls.n	10042238 <_check_radio_activity.part.0.constprop.0+0x164>
1004219c:	2507      	movs	r5, #7
1004219e:	4e3c      	ldr	r6, [pc, #240]	@ (10042290 <_check_radio_activity.part.0.constprop.0+0x1bc>)
100421a0:	9907      	ldr	r1, [sp, #28]
100421a2:	7973      	ldrb	r3, [r6, #5]
100421a4:	2703      	movs	r7, #3
100421a6:	1ac3      	subs	r3, r0, r3
100421a8:	1b1b      	subs	r3, r3, r4
100421aa:	1859      	adds	r1, r3, r1
100421ac:	6251      	str	r1, [r2, #36]	@ 0x24
100421ae:	6a91      	ldr	r1, [r2, #40]	@ 0x28
100421b0:	43a9      	bics	r1, r5
100421b2:	6291      	str	r1, [r2, #40]	@ 0x28
100421b4:	21c0      	movs	r1, #192	@ 0xc0
100421b6:	05c9      	lsls	r1, r1, #23
100421b8:	68cd      	ldr	r5, [r1, #12]
100421ba:	43bd      	bics	r5, r7
100421bc:	60cd      	str	r5, [r1, #12]
100421be:	68cd      	ldr	r5, [r1, #12]
100421c0:	43bd      	bics	r5, r7
100421c2:	60cd      	str	r5, [r1, #12]
100421c4:	2180      	movs	r1, #128	@ 0x80
100421c6:	6a95      	ldr	r5, [r2, #40]	@ 0x28
100421c8:	05c9      	lsls	r1, r1, #23
100421ca:	4329      	orrs	r1, r5
100421cc:	6291      	str	r1, [r2, #40]	@ 0x28
100421ce:	2180      	movs	r1, #128	@ 0x80
100421d0:	6a95      	ldr	r5, [r2, #40]	@ 0x28
100421d2:	0589      	lsls	r1, r1, #22
100421d4:	4329      	orrs	r1, r5
100421d6:	6291      	str	r1, [r2, #40]	@ 0x28
100421d8:	7975      	ldrb	r5, [r6, #5]
100421da:	192d      	adds	r5, r5, r4
100421dc:	9907      	ldr	r1, [sp, #28]
100421de:	4e2d      	ldr	r6, [pc, #180]	@ (10042294 <_check_radio_activity.part.0.constprop.0+0x1c0>)
100421e0:	1809      	adds	r1, r1, r0
100421e2:	6031      	str	r1, [r6, #0]
100421e4:	195b      	adds	r3, r3, r5
100421e6:	1d69      	adds	r1, r5, #5
100421e8:	4c26      	ldr	r4, [pc, #152]	@ (10042284 <_check_radio_activity.part.0.constprop.0+0x1b0>)
100421ea:	428b      	cmp	r3, r1
100421ec:	d239      	bcs.n	10042262 <_check_radio_activity.part.0.constprop.0+0x18e>
100421ee:	23c0      	movs	r3, #192	@ 0xc0
100421f0:	2003      	movs	r0, #3
100421f2:	05db      	lsls	r3, r3, #23
100421f4:	68d9      	ldr	r1, [r3, #12]
100421f6:	4381      	bics	r1, r0
100421f8:	60d9      	str	r1, [r3, #12]
100421fa:	68d9      	ldr	r1, [r3, #12]
100421fc:	4381      	bics	r1, r0
100421fe:	60d9      	str	r1, [r3, #12]
10042200:	6a93      	ldr	r3, [r2, #40]	@ 0x28
10042202:	4925      	ldr	r1, [pc, #148]	@ (10042298 <_check_radio_activity.part.0.constprop.0+0x1c4>)
10042204:	400b      	ands	r3, r1
10042206:	6293      	str	r3, [r2, #40]	@ 0x28
10042208:	2301      	movs	r3, #1
1004220a:	9a04      	ldr	r2, [sp, #16]
1004220c:	7013      	strb	r3, [r2, #0]
1004220e:	0023      	movs	r3, r4
10042210:	2201      	movs	r2, #1
10042212:	3361      	adds	r3, #97	@ 0x61
10042214:	701a      	strb	r2, [r3, #0]
10042216:	2380      	movs	r3, #128	@ 0x80
10042218:	3462      	adds	r4, #98	@ 0x62
1004221a:	005b      	lsls	r3, r3, #1
1004221c:	8023      	strh	r3, [r4, #0]
1004221e:	9b05      	ldr	r3, [sp, #20]
10042220:	f383 8810 	msr	PRIMASK, r3
10042224:	b009      	add	sp, #36	@ 0x24
10042226:	bdf0      	pop	{r4, r5, r6, r7, pc}
10042228:	3439      	adds	r4, #57	@ 0x39
1004222a:	e7a5      	b.n	10042178 <_check_radio_activity.part.0.constprop.0+0xa4>
1004222c:	2b00      	cmp	r3, #0
1004222e:	d001      	beq.n	10042234 <_check_radio_activity.part.0.constprop.0+0x160>
10042230:	343a      	adds	r4, #58	@ 0x3a
10042232:	e7a1      	b.n	10042178 <_check_radio_activity.part.0.constprop.0+0xa4>
10042234:	343b      	adds	r4, #59	@ 0x3b
10042236:	e79f      	b.n	10042178 <_check_radio_activity.part.0.constprop.0+0xa4>
10042238:	353d      	adds	r5, #61	@ 0x3d
1004223a:	7829      	ldrb	r1, [r5, #0]
1004223c:	25c0      	movs	r5, #192	@ 0xc0
1004223e:	9e07      	ldr	r6, [sp, #28]
10042240:	1a43      	subs	r3, r0, r1
10042242:	1b1b      	subs	r3, r3, r4
10042244:	05ed      	lsls	r5, r5, #23
10042246:	199e      	adds	r6, r3, r6
10042248:	612e      	str	r6, [r5, #16]
1004224a:	6a96      	ldr	r6, [r2, #40]	@ 0x28
1004224c:	4f12      	ldr	r7, [pc, #72]	@ (10042298 <_check_radio_activity.part.0.constprop.0+0x1c4>)
1004224e:	403e      	ands	r6, r7
10042250:	6296      	str	r6, [r2, #40]	@ 0x28
10042252:	2603      	movs	r6, #3
10042254:	68ef      	ldr	r7, [r5, #12]
10042256:	43b7      	bics	r7, r6
10042258:	3e01      	subs	r6, #1
1004225a:	433e      	orrs	r6, r7
1004225c:	60ee      	str	r6, [r5, #12]
1004225e:	1865      	adds	r5, r4, r1
10042260:	e7bc      	b.n	100421dc <_check_radio_activity.part.0.constprop.0+0x108>
10042262:	0028      	movs	r0, r5
10042264:	4a0d      	ldr	r2, [pc, #52]	@ (1004229c <_check_radio_activity.part.0.constprop.0+0x1c8>)
10042266:	69e1      	ldr	r1, [r4, #28]
10042268:	f7fd ff2a 	bl	100400c0 <blue_unit_conversion>
1004226c:	0023      	movs	r3, r4
1004226e:	3384      	adds	r3, #132	@ 0x84
10042270:	7018      	strb	r0, [r3, #0]
10042272:	2300      	movs	r3, #0
10042274:	e7c9      	b.n	1004220a <_check_radio_activity.part.0.constprop.0+0x136>
10042276:	2200      	movs	r2, #0
10042278:	4b09      	ldr	r3, [pc, #36]	@ (100422a0 <_check_radio_activity.part.0.constprop.0+0x1cc>)
1004227a:	701a      	strb	r2, [r3, #0]
1004227c:	2301      	movs	r3, #1
1004227e:	9a04      	ldr	r2, [sp, #16]
10042280:	7013      	strb	r3, [r2, #0]
10042282:	e7cc      	b.n	1004221e <_check_radio_activity.part.0.constprop.0+0x14a>
10042284:	20000808 	.word	0x20000808
10042288:	00000326 	.word	0x00000326
1004228c:	60001800 	.word	0x60001800
10042290:	200000c0 	.word	0x200000c0
10042294:	20000890 	.word	0x20000890
10042298:	bfffffff 	.word	0xbfffffff
1004229c:	00000635 	.word	0x00000635
100422a0:	2000086a 	.word	0x2000086a

100422a4 <HAL_RADIO_TIMER_SetRadioTimerValue>:
100422a4:	b5f7      	push	{r0, r1, r2, r4, r5, r6, r7, lr}
100422a6:	1e4b      	subs	r3, r1, #1
100422a8:	4199      	sbcs	r1, r3
100422aa:	4c14      	ldr	r4, [pc, #80]	@ (100422fc <HAL_RADIO_TIMER_SetRadioTimerValue+0x58>)
100422ac:	4b14      	ldr	r3, [pc, #80]	@ (10042300 <HAL_RADIO_TIMER_SetRadioTimerValue+0x5c>)
100422ae:	6aa6      	ldr	r6, [r4, #40]	@ 0x28
100422b0:	6ae7      	ldr	r7, [r4, #44]	@ 0x2c
100422b2:	7019      	strb	r1, [r3, #0]
100422b4:	1e53      	subs	r3, r2, #1
100422b6:	419a      	sbcs	r2, r3
100422b8:	0023      	movs	r3, r4
100422ba:	2100      	movs	r1, #0
100422bc:	3360      	adds	r3, #96	@ 0x60
100422be:	701a      	strb	r2, [r3, #0]
100422c0:	000b      	movs	r3, r1
100422c2:	1b82      	subs	r2, r0, r6
100422c4:	1992      	adds	r2, r2, r6
100422c6:	417b      	adcs	r3, r7
100422c8:	65a2      	str	r2, [r4, #88]	@ 0x58
100422ca:	65e3      	str	r3, [r4, #92]	@ 0x5c
100422cc:	0023      	movs	r3, r4
100422ce:	3361      	adds	r3, #97	@ 0x61
100422d0:	7019      	strb	r1, [r3, #0]
100422d2:	0023      	movs	r3, r4
100422d4:	2501      	movs	r5, #1
100422d6:	3362      	adds	r3, #98	@ 0x62
100422d8:	801d      	strh	r5, [r3, #0]
100422da:	466b      	mov	r3, sp
100422dc:	3490      	adds	r4, #144	@ 0x90
100422de:	1dd8      	adds	r0, r3, #7
100422e0:	71d9      	strb	r1, [r3, #7]
100422e2:	f7ff fef7 	bl	100420d4 <_check_radio_activity.part.0.constprop.0>
100422e6:	7823      	ldrb	r3, [r4, #0]
100422e8:	2b00      	cmp	r3, #0
100422ea:	d103      	bne.n	100422f4 <HAL_RADIO_TIMER_SetRadioTimerValue+0x50>
100422ec:	4805      	ldr	r0, [pc, #20]	@ (10042304 <HAL_RADIO_TIMER_SetRadioTimerValue+0x60>)
100422ee:	f7ff fe75 	bl	10041fdc <_calibration_callback>
100422f2:	7025      	strb	r5, [r4, #0]
100422f4:	466b      	mov	r3, sp
100422f6:	79d8      	ldrb	r0, [r3, #7]
100422f8:	bdfe      	pop	{r1, r2, r3, r4, r5, r6, r7, pc}
100422fa:	46c0      	nop			@ (mov r8, r8)
100422fc:	20000808 	.word	0x20000808
10042300:	2000086c 	.word	0x2000086c
10042304:	20000848 	.word	0x20000848

10042308 <HAL_RADIO_TIMER_TimeoutCallback>:
10042308:	2300      	movs	r3, #0
1004230a:	b513      	push	{r0, r1, r4, lr}
1004230c:	9301      	str	r3, [sp, #4]
1004230e:	9b01      	ldr	r3, [sp, #4]
10042310:	4b0c      	ldr	r3, [pc, #48]	@ (10042344 <HAL_RADIO_TIMER_TimeoutCallback+0x3c>)
10042312:	490d      	ldr	r1, [pc, #52]	@ (10042348 <HAL_RADIO_TIMER_TimeoutCallback+0x40>)
10042314:	6b1a      	ldr	r2, [r3, #48]	@ 0x30
10042316:	400a      	ands	r2, r1
10042318:	631a      	str	r2, [r3, #48]	@ 0x30
1004231a:	4a0c      	ldr	r2, [pc, #48]	@ (1004234c <HAL_RADIO_TIMER_TimeoutCallback+0x44>)
1004231c:	490c      	ldr	r1, [pc, #48]	@ (10042350 <HAL_RADIO_TIMER_TimeoutCallback+0x48>)
1004231e:	0014      	movs	r4, r2
10042320:	7809      	ldrb	r1, [r1, #0]
10042322:	3492      	adds	r4, #146	@ 0x92
10042324:	7824      	ldrb	r4, [r4, #0]
10042326:	1c48      	adds	r0, r1, #1
10042328:	42a0      	cmp	r0, r4
1004232a:	d000      	beq.n	1004232e <HAL_RADIO_TIMER_TimeoutCallback+0x26>
1004232c:	b2c1      	uxtb	r1, r0
1004232e:	3291      	adds	r2, #145	@ 0x91
10042330:	7011      	strb	r1, [r2, #0]
10042332:	2101      	movs	r1, #1
10042334:	6cda      	ldr	r2, [r3, #76]	@ 0x4c
10042336:	430a      	orrs	r2, r1
10042338:	64da      	str	r2, [r3, #76]	@ 0x4c
1004233a:	6cdb      	ldr	r3, [r3, #76]	@ 0x4c
1004233c:	400b      	ands	r3, r1
1004233e:	9301      	str	r3, [sp, #4]
10042340:	bd13      	pop	{r0, r1, r4, pc}
10042342:	46c0      	nop			@ (mov r8, r8)
10042344:	60001800 	.word	0x60001800
10042348:	bfffffff 	.word	0xbfffffff
1004234c:	20000808 	.word	0x20000808
10042350:	20000899 	.word	0x20000899

10042354 <HAL_RADIO_TIMER_CpuWakeUpCallback>:
10042354:	4770      	bx	lr

10042356 <HAL_RADIO_TIMER_CPU_WKUP_IRQHandler>:
10042356:	b510      	push	{r4, lr}
10042358:	f7ff ffd6 	bl	10042308 <HAL_RADIO_TIMER_TimeoutCallback>
1004235c:	f7ff fffa 	bl	10042354 <HAL_RADIO_TIMER_CpuWakeUpCallback>
10042360:	bd10      	pop	{r4, pc}

10042362 <HAL_RADIO_TIMER_ERROR_IRQHandler>:
10042362:	2300      	movs	r3, #0
10042364:	b082      	sub	sp, #8
10042366:	9301      	str	r3, [sp, #4]
10042368:	9b01      	ldr	r3, [sp, #4]
1004236a:	23c0      	movs	r3, #192	@ 0xc0
1004236c:	2201      	movs	r2, #1
1004236e:	05db      	lsls	r3, r3, #23
10042370:	6f59      	ldr	r1, [r3, #116]	@ 0x74
10042372:	430a      	orrs	r2, r1
10042374:	675a      	str	r2, [r3, #116]	@ 0x74
10042376:	6f5b      	ldr	r3, [r3, #116]	@ 0x74
10042378:	9301      	str	r3, [sp, #4]
1004237a:	b002      	add	sp, #8
1004237c:	4770      	bx	lr
	...

10042380 <LL_RCC_HSE_IsReady>:
10042380:	4b02      	ldr	r3, [pc, #8]	@ (1004238c <LL_RCC_HSE_IsReady+0xc>)
10042382:	6818      	ldr	r0, [r3, #0]
10042384:	0380      	lsls	r0, r0, #14
10042386:	0fc0      	lsrs	r0, r0, #31
10042388:	4770      	bx	lr
1004238a:	46c0      	nop			@ (mov r8, r8)
1004238c:	48400000 	.word	0x48400000

10042390 <LL_RCC_HSI_Enable>:
10042390:	2104      	movs	r1, #4
10042392:	4b04      	ldr	r3, [pc, #16]	@ (100423a4 <LL_RCC_HSI_Enable+0x14>)
10042394:	689a      	ldr	r2, [r3, #8]
10042396:	438a      	bics	r2, r1
10042398:	609a      	str	r2, [r3, #8]
1004239a:	689a      	ldr	r2, [r3, #8]
1004239c:	3902      	subs	r1, #2
1004239e:	438a      	bics	r2, r1
100423a0:	609a      	str	r2, [r3, #8]
100423a2:	4770      	bx	lr
100423a4:	48400000 	.word	0x48400000

100423a8 <LL_RCC_HSI_IsReady>:
100423a8:	4b02      	ldr	r3, [pc, #8]	@ (100423b4 <LL_RCC_HSI_IsReady+0xc>)
100423aa:	6818      	ldr	r0, [r3, #0]
100423ac:	0540      	lsls	r0, r0, #21
100423ae:	0fc0      	lsrs	r0, r0, #31
100423b0:	4770      	bx	lr
100423b2:	46c0      	nop			@ (mov r8, r8)
100423b4:	48400000 	.word	0x48400000

100423b8 <HAL_RCC_OscConfig>:
100423b8:	b5f8      	push	{r3, r4, r5, r6, r7, lr}
100423ba:	0005      	movs	r5, r0
100423bc:	2001      	movs	r0, #1
100423be:	2d00      	cmp	r5, #0
100423c0:	d100      	bne.n	100423c4 <HAL_RCC_OscConfig+0xc>
100423c2:	e093      	b.n	100424ec <HAL_RCC_OscConfig+0x134>
100423c4:	682b      	ldr	r3, [r5, #0]
100423c6:	06db      	lsls	r3, r3, #27
100423c8:	d465      	bmi.n	10042496 <HAL_RCC_OscConfig+0xde>
100423ca:	682b      	ldr	r3, [r5, #0]
100423cc:	07db      	lsls	r3, r3, #31
100423ce:	d523      	bpl.n	10042418 <HAL_RCC_OscConfig+0x60>
100423d0:	4b90      	ldr	r3, [pc, #576]	@ (10042614 <HAL_RCC_OscConfig+0x25c>)
100423d2:	4991      	ldr	r1, [pc, #580]	@ (10042618 <HAL_RCC_OscConfig+0x260>)
100423d4:	6818      	ldr	r0, [r3, #0]
100423d6:	4a91      	ldr	r2, [pc, #580]	@ (1004261c <HAL_RCC_OscConfig+0x264>)
100423d8:	4008      	ands	r0, r1
100423da:	2180      	movs	r1, #128	@ 0x80
100423dc:	0189      	lsls	r1, r1, #6
100423de:	4301      	orrs	r1, r0
100423e0:	6019      	str	r1, [r3, #0]
100423e2:	2180      	movs	r1, #128	@ 0x80
100423e4:	6818      	ldr	r0, [r3, #0]
100423e6:	4301      	orrs	r1, r0
100423e8:	6019      	str	r1, [r3, #0]
100423ea:	2170      	movs	r1, #112	@ 0x70
100423ec:	6818      	ldr	r0, [r3, #0]
100423ee:	4388      	bics	r0, r1
100423f0:	3940      	subs	r1, #64	@ 0x40
100423f2:	4301      	orrs	r1, r0
100423f4:	6019      	str	r1, [r3, #0]
100423f6:	2180      	movs	r1, #128	@ 0x80
100423f8:	686b      	ldr	r3, [r5, #4]
100423fa:	0249      	lsls	r1, r1, #9
100423fc:	428b      	cmp	r3, r1
100423fe:	d000      	beq.n	10042402 <HAL_RCC_OscConfig+0x4a>
10042400:	e075      	b.n	100424ee <HAL_RCC_OscConfig+0x136>
10042402:	6811      	ldr	r1, [r2, #0]
10042404:	430b      	orrs	r3, r1
10042406:	6013      	str	r3, [r2, #0]
10042408:	f7ff f870 	bl	100414ec <HAL_GetTick>
1004240c:	0004      	movs	r4, r0
1004240e:	f7ff ffb7 	bl	10042380 <LL_RCC_HSE_IsReady>
10042412:	2800      	cmp	r0, #0
10042414:	d100      	bne.n	10042418 <HAL_RCC_OscConfig+0x60>
10042416:	e07f      	b.n	10042518 <HAL_RCC_OscConfig+0x160>
10042418:	2204      	movs	r2, #4
1004241a:	682b      	ldr	r3, [r5, #0]
1004241c:	4213      	tst	r3, r2
1004241e:	d000      	beq.n	10042422 <HAL_RCC_OscConfig+0x6a>
10042420:	e081      	b.n	10042526 <HAL_RCC_OscConfig+0x16e>
10042422:	682b      	ldr	r3, [r5, #0]
10042424:	079b      	lsls	r3, r3, #30
10042426:	d400      	bmi.n	1004242a <HAL_RCC_OscConfig+0x72>
10042428:	e0c9      	b.n	100425be <HAL_RCC_OscConfig+0x206>
1004242a:	2204      	movs	r2, #4
1004242c:	4c7b      	ldr	r4, [pc, #492]	@ (1004261c <HAL_RCC_OscConfig+0x264>)
1004242e:	6823      	ldr	r3, [r4, #0]
10042430:	4393      	bics	r3, r2
10042432:	6023      	str	r3, [r4, #0]
10042434:	6823      	ldr	r3, [r4, #0]
10042436:	320c      	adds	r2, #12
10042438:	4393      	bics	r3, r2
1004243a:	6023      	str	r3, [r4, #0]
1004243c:	2320      	movs	r3, #32
1004243e:	6822      	ldr	r2, [r4, #0]
10042440:	421a      	tst	r2, r3
10042442:	d1fc      	bne.n	1004243e <HAL_RCC_OscConfig+0x86>
10042444:	4a76      	ldr	r2, [pc, #472]	@ (10042620 <HAL_RCC_OscConfig+0x268>)
10042446:	4877      	ldr	r0, [pc, #476]	@ (10042624 <HAL_RCC_OscConfig+0x26c>)
10042448:	6a91      	ldr	r1, [r2, #40]	@ 0x28
1004244a:	4001      	ands	r1, r0
1004244c:	6291      	str	r1, [r2, #40]	@ 0x28
1004244e:	6ad1      	ldr	r1, [r2, #44]	@ 0x2c
10042450:	4001      	ands	r1, r0
10042452:	62d1      	str	r1, [r2, #44]	@ 0x2c
10042454:	68a1      	ldr	r1, [r4, #8]
10042456:	4a74      	ldr	r2, [pc, #464]	@ (10042628 <HAL_RCC_OscConfig+0x270>)
10042458:	4011      	ands	r1, r2
1004245a:	2280      	movs	r2, #128	@ 0x80
1004245c:	0212      	lsls	r2, r2, #8
1004245e:	430a      	orrs	r2, r1
10042460:	2160      	movs	r1, #96	@ 0x60
10042462:	60a2      	str	r2, [r4, #8]
10042464:	68e2      	ldr	r2, [r4, #12]
10042466:	438a      	bics	r2, r1
10042468:	4313      	orrs	r3, r2
1004246a:	60e3      	str	r3, [r4, #12]
1004246c:	68eb      	ldr	r3, [r5, #12]
1004246e:	6822      	ldr	r2, [r4, #0]
10042470:	2b10      	cmp	r3, #16
10042472:	d000      	beq.n	10042476 <HAL_RCC_OscConfig+0xbe>
10042474:	e090      	b.n	10042598 <HAL_RCC_OscConfig+0x1e0>
10042476:	4313      	orrs	r3, r2
10042478:	6023      	str	r3, [r4, #0]
1004247a:	f7ff f837 	bl	100414ec <HAL_GetTick>
1004247e:	2720      	movs	r7, #32
10042480:	0006      	movs	r6, r0
10042482:	6823      	ldr	r3, [r4, #0]
10042484:	423b      	tst	r3, r7
10042486:	d000      	beq.n	1004248a <HAL_RCC_OscConfig+0xd2>
10042488:	e099      	b.n	100425be <HAL_RCC_OscConfig+0x206>
1004248a:	f7ff f82f 	bl	100414ec <HAL_GetTick>
1004248e:	1b80      	subs	r0, r0, r6
10042490:	2864      	cmp	r0, #100	@ 0x64
10042492:	d9f6      	bls.n	10042482 <HAL_RCC_OscConfig+0xca>
10042494:	e029      	b.n	100424ea <HAL_RCC_OscConfig+0x132>
10042496:	68a9      	ldr	r1, [r5, #8]
10042498:	2900      	cmp	r1, #0
1004249a:	d10e      	bne.n	100424ba <HAL_RCC_OscConfig+0x102>
1004249c:	f7ff ff78 	bl	10042390 <LL_RCC_HSI_Enable>
100424a0:	f7ff f824 	bl	100414ec <HAL_GetTick>
100424a4:	0004      	movs	r4, r0
100424a6:	f7ff ff7f 	bl	100423a8 <LL_RCC_HSI_IsReady>
100424aa:	2801      	cmp	r0, #1
100424ac:	d08d      	beq.n	100423ca <HAL_RCC_OscConfig+0x12>
100424ae:	f7ff f81d 	bl	100414ec <HAL_GetTick>
100424b2:	1b00      	subs	r0, r0, r4
100424b4:	2864      	cmp	r0, #100	@ 0x64
100424b6:	d9f6      	bls.n	100424a6 <HAL_RCC_OscConfig+0xee>
100424b8:	e017      	b.n	100424ea <HAL_RCC_OscConfig+0x132>
100424ba:	2202      	movs	r2, #2
100424bc:	4b57      	ldr	r3, [pc, #348]	@ (1004261c <HAL_RCC_OscConfig+0x264>)
100424be:	6898      	ldr	r0, [r3, #8]
100424c0:	4302      	orrs	r2, r0
100424c2:	609a      	str	r2, [r3, #8]
100424c4:	2204      	movs	r2, #4
100424c6:	6898      	ldr	r0, [r3, #8]
100424c8:	4302      	orrs	r2, r0
100424ca:	609a      	str	r2, [r3, #8]
100424cc:	2904      	cmp	r1, #4
100424ce:	d1e7      	bne.n	100424a0 <HAL_RCC_OscConfig+0xe8>
100424d0:	f7ff f80c 	bl	100414ec <HAL_GetTick>
100424d4:	0004      	movs	r4, r0
100424d6:	f7ff ff67 	bl	100423a8 <LL_RCC_HSI_IsReady>
100424da:	2801      	cmp	r0, #1
100424dc:	d000      	beq.n	100424e0 <HAL_RCC_OscConfig+0x128>
100424de:	e774      	b.n	100423ca <HAL_RCC_OscConfig+0x12>
100424e0:	f7ff f804 	bl	100414ec <HAL_GetTick>
100424e4:	1b00      	subs	r0, r0, r4
100424e6:	2864      	cmp	r0, #100	@ 0x64
100424e8:	d9f5      	bls.n	100424d6 <HAL_RCC_OscConfig+0x11e>
100424ea:	2003      	movs	r0, #3
100424ec:	bdf8      	pop	{r3, r4, r5, r6, r7, pc}
100424ee:	6811      	ldr	r1, [r2, #0]
100424f0:	484e      	ldr	r0, [pc, #312]	@ (1004262c <HAL_RCC_OscConfig+0x274>)
100424f2:	4001      	ands	r1, r0
100424f4:	6011      	str	r1, [r2, #0]
100424f6:	2b00      	cmp	r3, #0
100424f8:	d000      	beq.n	100424fc <HAL_RCC_OscConfig+0x144>
100424fa:	e785      	b.n	10042408 <HAL_RCC_OscConfig+0x50>
100424fc:	f7fe fff6 	bl	100414ec <HAL_GetTick>
10042500:	0004      	movs	r4, r0
10042502:	f7ff ff3d 	bl	10042380 <LL_RCC_HSE_IsReady>
10042506:	2800      	cmp	r0, #0
10042508:	d100      	bne.n	1004250c <HAL_RCC_OscConfig+0x154>
1004250a:	e785      	b.n	10042418 <HAL_RCC_OscConfig+0x60>
1004250c:	f7fe ffee 	bl	100414ec <HAL_GetTick>
10042510:	1b00      	subs	r0, r0, r4
10042512:	2864      	cmp	r0, #100	@ 0x64
10042514:	d9f5      	bls.n	10042502 <HAL_RCC_OscConfig+0x14a>
10042516:	e7e8      	b.n	100424ea <HAL_RCC_OscConfig+0x132>
10042518:	f7fe ffe8 	bl	100414ec <HAL_GetTick>
1004251c:	1b00      	subs	r0, r0, r4
1004251e:	2864      	cmp	r0, #100	@ 0x64
10042520:	d800      	bhi.n	10042524 <HAL_RCC_OscConfig+0x16c>
10042522:	e774      	b.n	1004240e <HAL_RCC_OscConfig+0x56>
10042524:	e7e1      	b.n	100424ea <HAL_RCC_OscConfig+0x132>
10042526:	692b      	ldr	r3, [r5, #16]
10042528:	4c3c      	ldr	r4, [pc, #240]	@ (1004261c <HAL_RCC_OscConfig+0x264>)
1004252a:	2b00      	cmp	r3, #0
1004252c:	d023      	beq.n	10042576 <HAL_RCC_OscConfig+0x1be>
1004252e:	6823      	ldr	r3, [r4, #0]
10042530:	4393      	bics	r3, r2
10042532:	6023      	str	r3, [r4, #0]
10042534:	2308      	movs	r3, #8
10042536:	6822      	ldr	r2, [r4, #0]
10042538:	421a      	tst	r2, r3
1004253a:	d1fc      	bne.n	10042536 <HAL_RCC_OscConfig+0x17e>
1004253c:	2210      	movs	r2, #16
1004253e:	6823      	ldr	r3, [r4, #0]
10042540:	2708      	movs	r7, #8
10042542:	4393      	bics	r3, r2
10042544:	6023      	str	r3, [r4, #0]
10042546:	68a2      	ldr	r2, [r4, #8]
10042548:	4b37      	ldr	r3, [pc, #220]	@ (10042628 <HAL_RCC_OscConfig+0x270>)
1004254a:	401a      	ands	r2, r3
1004254c:	2380      	movs	r3, #128	@ 0x80
1004254e:	025b      	lsls	r3, r3, #9
10042550:	4313      	orrs	r3, r2
10042552:	60a3      	str	r3, [r4, #8]
10042554:	2304      	movs	r3, #4
10042556:	6822      	ldr	r2, [r4, #0]
10042558:	4313      	orrs	r3, r2
1004255a:	6023      	str	r3, [r4, #0]
1004255c:	f7fe ffc6 	bl	100414ec <HAL_GetTick>
10042560:	0006      	movs	r6, r0
10042562:	6823      	ldr	r3, [r4, #0]
10042564:	423b      	tst	r3, r7
10042566:	d000      	beq.n	1004256a <HAL_RCC_OscConfig+0x1b2>
10042568:	e75b      	b.n	10042422 <HAL_RCC_OscConfig+0x6a>
1004256a:	f7fe ffbf 	bl	100414ec <HAL_GetTick>
1004256e:	1b80      	subs	r0, r0, r6
10042570:	2802      	cmp	r0, #2
10042572:	d9f6      	bls.n	10042562 <HAL_RCC_OscConfig+0x1aa>
10042574:	e7b9      	b.n	100424ea <HAL_RCC_OscConfig+0x132>
10042576:	6823      	ldr	r3, [r4, #0]
10042578:	2708      	movs	r7, #8
1004257a:	4393      	bics	r3, r2
1004257c:	6023      	str	r3, [r4, #0]
1004257e:	f7fe ffb5 	bl	100414ec <HAL_GetTick>
10042582:	0006      	movs	r6, r0
10042584:	6823      	ldr	r3, [r4, #0]
10042586:	423b      	tst	r3, r7
10042588:	d100      	bne.n	1004258c <HAL_RCC_OscConfig+0x1d4>
1004258a:	e74a      	b.n	10042422 <HAL_RCC_OscConfig+0x6a>
1004258c:	f7fe ffae 	bl	100414ec <HAL_GetTick>
10042590:	1b80      	subs	r0, r0, r6
10042592:	2802      	cmp	r0, #2
10042594:	d9f6      	bls.n	10042584 <HAL_RCC_OscConfig+0x1cc>
10042596:	e7a8      	b.n	100424ea <HAL_RCC_OscConfig+0x132>
10042598:	2110      	movs	r1, #16
1004259a:	438a      	bics	r2, r1
1004259c:	6022      	str	r2, [r4, #0]
1004259e:	2b00      	cmp	r3, #0
100425a0:	d000      	beq.n	100425a4 <HAL_RCC_OscConfig+0x1ec>
100425a2:	e76a      	b.n	1004247a <HAL_RCC_OscConfig+0xc2>
100425a4:	f7fe ffa2 	bl	100414ec <HAL_GetTick>
100425a8:	2720      	movs	r7, #32
100425aa:	0006      	movs	r6, r0
100425ac:	6823      	ldr	r3, [r4, #0]
100425ae:	423b      	tst	r3, r7
100425b0:	d005      	beq.n	100425be <HAL_RCC_OscConfig+0x206>
100425b2:	f7fe ff9b 	bl	100414ec <HAL_GetTick>
100425b6:	1b80      	subs	r0, r0, r6
100425b8:	2864      	cmp	r0, #100	@ 0x64
100425ba:	d9f7      	bls.n	100425ac <HAL_RCC_OscConfig+0x1f4>
100425bc:	e795      	b.n	100424ea <HAL_RCC_OscConfig+0x132>
100425be:	682b      	ldr	r3, [r5, #0]
100425c0:	071b      	lsls	r3, r3, #28
100425c2:	d401      	bmi.n	100425c8 <HAL_RCC_OscConfig+0x210>
100425c4:	2000      	movs	r0, #0
100425c6:	e791      	b.n	100424ec <HAL_RCC_OscConfig+0x134>
100425c8:	4c14      	ldr	r4, [pc, #80]	@ (1004261c <HAL_RCC_OscConfig+0x264>)
100425ca:	696b      	ldr	r3, [r5, #20]
100425cc:	6822      	ldr	r2, [r4, #0]
100425ce:	2b40      	cmp	r3, #64	@ 0x40
100425d0:	d10e      	bne.n	100425f0 <HAL_RCC_OscConfig+0x238>
100425d2:	4313      	orrs	r3, r2
100425d4:	6023      	str	r3, [r4, #0]
100425d6:	f7fe ff89 	bl	100414ec <HAL_GetTick>
100425da:	2640      	movs	r6, #64	@ 0x40
100425dc:	0005      	movs	r5, r0
100425de:	6823      	ldr	r3, [r4, #0]
100425e0:	4233      	tst	r3, r6
100425e2:	d1ef      	bne.n	100425c4 <HAL_RCC_OscConfig+0x20c>
100425e4:	f7fe ff82 	bl	100414ec <HAL_GetTick>
100425e8:	1b40      	subs	r0, r0, r5
100425ea:	2864      	cmp	r0, #100	@ 0x64
100425ec:	d9f7      	bls.n	100425de <HAL_RCC_OscConfig+0x226>
100425ee:	e77c      	b.n	100424ea <HAL_RCC_OscConfig+0x132>
100425f0:	2540      	movs	r5, #64	@ 0x40
100425f2:	43aa      	bics	r2, r5
100425f4:	6022      	str	r2, [r4, #0]
100425f6:	2b00      	cmp	r3, #0
100425f8:	d1ed      	bne.n	100425d6 <HAL_RCC_OscConfig+0x21e>
100425fa:	f7fe ff77 	bl	100414ec <HAL_GetTick>
100425fe:	0006      	movs	r6, r0
10042600:	6823      	ldr	r3, [r4, #0]
10042602:	422b      	tst	r3, r5
10042604:	d0de      	beq.n	100425c4 <HAL_RCC_OscConfig+0x20c>
10042606:	f7fe ff71 	bl	100414ec <HAL_GetTick>
1004260a:	1b80      	subs	r0, r0, r6
1004260c:	2864      	cmp	r0, #100	@ 0x64
1004260e:	d9f7      	bls.n	10042600 <HAL_RCC_OscConfig+0x248>
10042610:	e76b      	b.n	100424ea <HAL_RCC_OscConfig+0x132>
10042612:	46c0      	nop			@ (mov r8, r8)
10042614:	48400098 	.word	0x48400098
10042618:	ffffc0ff 	.word	0xffffc0ff
1004261c:	48400000 	.word	0x48400000
10042620:	48500000 	.word	0x48500000
10042624:	ffffcfff 	.word	0xffffcfff
10042628:	fffe7fff 	.word	0xfffe7fff
1004262c:	fffeffff 	.word	0xfffeffff

10042630 <HAL_RCC_ClockConfig>:
10042630:	b5f0      	push	{r4, r5, r6, r7, lr}
10042632:	0004      	movs	r4, r0
10042634:	000d      	movs	r5, r1
10042636:	b085      	sub	sp, #20
10042638:	2800      	cmp	r0, #0
1004263a:	d102      	bne.n	10042642 <HAL_RCC_ClockConfig+0x12>
1004263c:	2001      	movs	r0, #1
1004263e:	b005      	add	sp, #20
10042640:	bdf0      	pop	{r4, r5, r6, r7, pc}
10042642:	2230      	movs	r2, #48	@ 0x30
10042644:	4e47      	ldr	r6, [pc, #284]	@ (10042764 <HAL_RCC_ClockConfig+0x134>)
10042646:	6873      	ldr	r3, [r6, #4]
10042648:	4393      	bics	r3, r2
1004264a:	430b      	orrs	r3, r1
1004264c:	6073      	str	r3, [r6, #4]
1004264e:	6803      	ldr	r3, [r0, #0]
10042650:	2b02      	cmp	r3, #2
10042652:	d121      	bne.n	10042698 <HAL_RCC_ClockConfig+0x68>
10042654:	f7ff fe9c 	bl	10042390 <LL_RCC_HSI_Enable>
10042658:	f7ff fea6 	bl	100423a8 <LL_RCC_HSI_IsReady>
1004265c:	2800      	cmp	r0, #0
1004265e:	d0ed      	beq.n	1004263c <HAL_RCC_ClockConfig+0xc>
10042660:	4a41      	ldr	r2, [pc, #260]	@ (10042768 <HAL_RCC_ClockConfig+0x138>)
10042662:	4942      	ldr	r1, [pc, #264]	@ (1004276c <HAL_RCC_ClockConfig+0x13c>)
10042664:	6813      	ldr	r3, [r2, #0]
10042666:	400b      	ands	r3, r1
10042668:	21e0      	movs	r1, #224	@ 0xe0
1004266a:	6013      	str	r3, [r2, #0]
1004266c:	6893      	ldr	r3, [r2, #8]
1004266e:	438b      	bics	r3, r1
10042670:	6861      	ldr	r1, [r4, #4]
10042672:	430b      	orrs	r3, r1
10042674:	6093      	str	r3, [r2, #8]
10042676:	2430      	movs	r4, #48	@ 0x30
10042678:	6873      	ldr	r3, [r6, #4]
1004267a:	4023      	ands	r3, r4
1004267c:	42ab      	cmp	r3, r5
1004267e:	d15c      	bne.n	1004273a <HAL_RCC_ClockConfig+0x10a>
10042680:	2300      	movs	r3, #0
10042682:	9302      	str	r3, [sp, #8]
10042684:	9b02      	ldr	r3, [sp, #8]
10042686:	2b05      	cmp	r3, #5
10042688:	dd68      	ble.n	1004275c <HAL_RCC_ClockConfig+0x12c>
1004268a:	f7fe fccf 	bl	1004102c <SystemCoreClockUpdate>
1004268e:	f7fe ff33 	bl	100414f8 <HAL_GetTickPrio>
10042692:	f7fe feeb 	bl	1004146c <HAL_InitTick>
10042696:	e7d2      	b.n	1004263e <HAL_RCC_ClockConfig+0xe>
10042698:	2b00      	cmp	r3, #0
1004269a:	d123      	bne.n	100426e4 <HAL_RCC_ClockConfig+0xb4>
1004269c:	f7ff fe84 	bl	100423a8 <LL_RCC_HSI_IsReady>
100426a0:	2800      	cmp	r0, #0
100426a2:	d0cb      	beq.n	1004263c <HAL_RCC_ClockConfig+0xc>
100426a4:	f7ff fe6c 	bl	10042380 <LL_RCC_HSE_IsReady>
100426a8:	2800      	cmp	r0, #0
100426aa:	d0c7      	beq.n	1004263c <HAL_RCC_ClockConfig+0xc>
100426ac:	2380      	movs	r3, #128	@ 0x80
100426ae:	4f2e      	ldr	r7, [pc, #184]	@ (10042768 <HAL_RCC_ClockConfig+0x138>)
100426b0:	019b      	lsls	r3, r3, #6
100426b2:	683a      	ldr	r2, [r7, #0]
100426b4:	4313      	orrs	r3, r2
100426b6:	603b      	str	r3, [r7, #0]
100426b8:	f7fe ff18 	bl	100414ec <HAL_GetTick>
100426bc:	9001      	str	r0, [sp, #4]
100426be:	2280      	movs	r2, #128	@ 0x80
100426c0:	683b      	ldr	r3, [r7, #0]
100426c2:	01d2      	lsls	r2, r2, #7
100426c4:	4213      	tst	r3, r2
100426c6:	d107      	bne.n	100426d8 <HAL_RCC_ClockConfig+0xa8>
100426c8:	f7fe ff10 	bl	100414ec <HAL_GetTick>
100426cc:	9b01      	ldr	r3, [sp, #4]
100426ce:	1ac0      	subs	r0, r0, r3
100426d0:	2802      	cmp	r0, #2
100426d2:	d9f4      	bls.n	100426be <HAL_RCC_ClockConfig+0x8e>
100426d4:	2003      	movs	r0, #3
100426d6:	e7b2      	b.n	1004263e <HAL_RCC_ClockConfig+0xe>
100426d8:	22e0      	movs	r2, #224	@ 0xe0
100426da:	68bb      	ldr	r3, [r7, #8]
100426dc:	4393      	bics	r3, r2
100426de:	6862      	ldr	r2, [r4, #4]
100426e0:	4313      	orrs	r3, r2
100426e2:	60bb      	str	r3, [r7, #8]
100426e4:	6823      	ldr	r3, [r4, #0]
100426e6:	2b01      	cmp	r3, #1
100426e8:	d1c5      	bne.n	10042676 <HAL_RCC_ClockConfig+0x46>
100426ea:	2380      	movs	r3, #128	@ 0x80
100426ec:	4f1e      	ldr	r7, [pc, #120]	@ (10042768 <HAL_RCC_ClockConfig+0x138>)
100426ee:	029b      	lsls	r3, r3, #10
100426f0:	683a      	ldr	r2, [r7, #0]
100426f2:	421a      	tst	r2, r3
100426f4:	d0fc      	beq.n	100426f0 <HAL_RCC_ClockConfig+0xc0>
100426f6:	2302      	movs	r3, #2
100426f8:	68ba      	ldr	r2, [r7, #8]
100426fa:	4313      	orrs	r3, r2
100426fc:	60bb      	str	r3, [r7, #8]
100426fe:	2300      	movs	r3, #0
10042700:	9303      	str	r3, [sp, #12]
10042702:	9b03      	ldr	r3, [sp, #12]
10042704:	2b05      	cmp	r3, #5
10042706:	dd14      	ble.n	10042732 <HAL_RCC_ClockConfig+0x102>
10042708:	2304      	movs	r3, #4
1004270a:	68ba      	ldr	r2, [r7, #8]
1004270c:	4313      	orrs	r3, r2
1004270e:	60bb      	str	r3, [r7, #8]
10042710:	f7ff fe4a 	bl	100423a8 <LL_RCC_HSI_IsReady>
10042714:	2800      	cmp	r0, #0
10042716:	d000      	beq.n	1004271a <HAL_RCC_ClockConfig+0xea>
10042718:	e790      	b.n	1004263c <HAL_RCC_ClockConfig+0xc>
1004271a:	f7ff fe31 	bl	10042380 <LL_RCC_HSE_IsReady>
1004271e:	2800      	cmp	r0, #0
10042720:	d100      	bne.n	10042724 <HAL_RCC_ClockConfig+0xf4>
10042722:	e78b      	b.n	1004263c <HAL_RCC_ClockConfig+0xc>
10042724:	22e0      	movs	r2, #224	@ 0xe0
10042726:	68bb      	ldr	r3, [r7, #8]
10042728:	4393      	bics	r3, r2
1004272a:	6862      	ldr	r2, [r4, #4]
1004272c:	4313      	orrs	r3, r2
1004272e:	60bb      	str	r3, [r7, #8]
10042730:	e7a1      	b.n	10042676 <HAL_RCC_ClockConfig+0x46>
10042732:	46c0      	nop			@ (mov r8, r8)
10042734:	9b03      	ldr	r3, [sp, #12]
10042736:	3301      	adds	r3, #1
10042738:	e7e2      	b.n	10042700 <HAL_RCC_ClockConfig+0xd0>
1004273a:	6873      	ldr	r3, [r6, #4]
1004273c:	43a3      	bics	r3, r4
1004273e:	432b      	orrs	r3, r5
10042740:	6073      	str	r3, [r6, #4]
10042742:	f7fe fed3 	bl	100414ec <HAL_GetTick>
10042746:	0007      	movs	r7, r0
10042748:	6873      	ldr	r3, [r6, #4]
1004274a:	4023      	ands	r3, r4
1004274c:	42ab      	cmp	r3, r5
1004274e:	d097      	beq.n	10042680 <HAL_RCC_ClockConfig+0x50>
10042750:	f7fe fecc 	bl	100414ec <HAL_GetTick>
10042754:	1bc0      	subs	r0, r0, r7
10042756:	2802      	cmp	r0, #2
10042758:	d9f6      	bls.n	10042748 <HAL_RCC_ClockConfig+0x118>
1004275a:	e7bb      	b.n	100426d4 <HAL_RCC_ClockConfig+0xa4>
1004275c:	46c0      	nop			@ (mov r8, r8)
1004275e:	9b02      	ldr	r3, [sp, #8]
10042760:	3301      	adds	r3, #1
10042762:	e78e      	b.n	10042682 <HAL_RCC_ClockConfig+0x52>
10042764:	40001000 	.word	0x40001000
10042768:	48400000 	.word	0x48400000
1004276c:	ffffdfff 	.word	0xffffdfff

10042770 <HAL_RCC_GetSysClockFreq>:
10042770:	4b01      	ldr	r3, [pc, #4]	@ (10042778 <HAL_RCC_GetSysClockFreq+0x8>)
10042772:	6818      	ldr	r0, [r3, #0]
10042774:	4770      	bx	lr
10042776:	46c0      	nop			@ (mov r8, r8)
10042778:	20000a00 	.word	0x20000a00

1004277c <HAL_RCCEx_PeriphCLKConfig>:
1004277c:	6803      	ldr	r3, [r0, #0]
1004277e:	b510      	push	{r4, lr}
10042780:	07da      	lsls	r2, r3, #31
10042782:	d506      	bpl.n	10042792 <HAL_RCCEx_PeriphCLKConfig+0x16>
10042784:	2404      	movs	r4, #4
10042786:	4916      	ldr	r1, [pc, #88]	@ (100427e0 <HAL_RCCEx_PeriphCLKConfig+0x64>)
10042788:	6e0a      	ldr	r2, [r1, #96]	@ 0x60
1004278a:	43a2      	bics	r2, r4
1004278c:	6904      	ldr	r4, [r0, #16]
1004278e:	4322      	orrs	r2, r4
10042790:	660a      	str	r2, [r1, #96]	@ 0x60
10042792:	079a      	lsls	r2, r3, #30
10042794:	d506      	bpl.n	100427a4 <HAL_RCCEx_PeriphCLKConfig+0x28>
10042796:	4912      	ldr	r1, [pc, #72]	@ (100427e0 <HAL_RCCEx_PeriphCLKConfig+0x64>)
10042798:	4c12      	ldr	r4, [pc, #72]	@ (100427e4 <HAL_RCCEx_PeriphCLKConfig+0x68>)
1004279a:	688a      	ldr	r2, [r1, #8]
1004279c:	4022      	ands	r2, r4
1004279e:	6944      	ldr	r4, [r0, #20]
100427a0:	4322      	orrs	r2, r4
100427a2:	608a      	str	r2, [r1, #8]
100427a4:	071a      	lsls	r2, r3, #28
100427a6:	d506      	bpl.n	100427b6 <HAL_RCCEx_PeriphCLKConfig+0x3a>
100427a8:	490d      	ldr	r1, [pc, #52]	@ (100427e0 <HAL_RCCEx_PeriphCLKConfig+0x64>)
100427aa:	4c0f      	ldr	r4, [pc, #60]	@ (100427e8 <HAL_RCCEx_PeriphCLKConfig+0x6c>)
100427ac:	688a      	ldr	r2, [r1, #8]
100427ae:	4022      	ands	r2, r4
100427b0:	6844      	ldr	r4, [r0, #4]
100427b2:	4322      	orrs	r2, r4
100427b4:	608a      	str	r2, [r1, #8]
100427b6:	06db      	lsls	r3, r3, #27
100427b8:	d506      	bpl.n	100427c8 <HAL_RCCEx_PeriphCLKConfig+0x4c>
100427ba:	4a09      	ldr	r2, [pc, #36]	@ (100427e0 <HAL_RCCEx_PeriphCLKConfig+0x64>)
100427bc:	490b      	ldr	r1, [pc, #44]	@ (100427ec <HAL_RCCEx_PeriphCLKConfig+0x70>)
100427be:	6893      	ldr	r3, [r2, #8]
100427c0:	400b      	ands	r3, r1
100427c2:	68c1      	ldr	r1, [r0, #12]
100427c4:	430b      	orrs	r3, r1
100427c6:	6093      	str	r3, [r2, #8]
100427c8:	6881      	ldr	r1, [r0, #8]
100427ca:	068b      	lsls	r3, r1, #26
100427cc:	d505      	bpl.n	100427da <HAL_RCCEx_PeriphCLKConfig+0x5e>
100427ce:	4a04      	ldr	r2, [pc, #16]	@ (100427e0 <HAL_RCCEx_PeriphCLKConfig+0x64>)
100427d0:	4807      	ldr	r0, [pc, #28]	@ (100427f0 <HAL_RCCEx_PeriphCLKConfig+0x74>)
100427d2:	6893      	ldr	r3, [r2, #8]
100427d4:	4003      	ands	r3, r0
100427d6:	430b      	orrs	r3, r1
100427d8:	6093      	str	r3, [r2, #8]
100427da:	2000      	movs	r0, #0
100427dc:	bd10      	pop	{r4, pc}
100427de:	46c0      	nop			@ (mov r8, r8)
100427e0:	48400000 	.word	0x48400000
100427e4:	ffffefff 	.word	0xffffefff
100427e8:	ff3fffff 	.word	0xff3fffff
100427ec:	ffffdfff 	.word	0xffffdfff
100427f0:	fffe7fff 	.word	0xfffe7fff

100427f4 <HAL_RCCEx_GetPeriphCLKFreq>:
100427f4:	2808      	cmp	r0, #8
100427f6:	d030      	beq.n	1004285a <HAL_RCCEx_GetPeriphCLKFreq+0x66>
100427f8:	d805      	bhi.n	10042806 <HAL_RCCEx_GetPeriphCLKFreq+0x12>
100427fa:	2801      	cmp	r0, #1
100427fc:	d018      	beq.n	10042830 <HAL_RCCEx_GetPeriphCLKFreq+0x3c>
100427fe:	2802      	cmp	r0, #2
10042800:	d021      	beq.n	10042846 <HAL_RCCEx_GetPeriphCLKFreq+0x52>
10042802:	2000      	movs	r0, #0
10042804:	4770      	bx	lr
10042806:	2810      	cmp	r0, #16
10042808:	d049      	beq.n	1004289e <HAL_RCCEx_GetPeriphCLKFreq+0xaa>
1004280a:	2820      	cmp	r0, #32
1004280c:	d1f9      	bne.n	10042802 <HAL_RCCEx_GetPeriphCLKFreq+0xe>
1004280e:	4b2c      	ldr	r3, [pc, #176]	@ (100428c0 <HAL_RCCEx_GetPeriphCLKFreq+0xcc>)
10042810:	2280      	movs	r2, #128	@ 0x80
10042812:	6898      	ldr	r0, [r3, #8]
10042814:	23c0      	movs	r3, #192	@ 0xc0
10042816:	025b      	lsls	r3, r3, #9
10042818:	4018      	ands	r0, r3
1004281a:	0252      	lsls	r2, r2, #9
1004281c:	4290      	cmp	r0, r2
1004281e:	d04a      	beq.n	100428b6 <HAL_RCCEx_GetPeriphCLKFreq+0xc2>
10042820:	4298      	cmp	r0, r3
10042822:	d04b      	beq.n	100428bc <HAL_RCCEx_GetPeriphCLKFreq+0xc8>
10042824:	4b27      	ldr	r3, [pc, #156]	@ (100428c4 <HAL_RCCEx_GetPeriphCLKFreq+0xd0>)
10042826:	18c0      	adds	r0, r0, r3
10042828:	4243      	negs	r3, r0
1004282a:	4158      	adcs	r0, r3
1004282c:	03c0      	lsls	r0, r0, #15
1004282e:	e7e9      	b.n	10042804 <HAL_RCCEx_GetPeriphCLKFreq+0x10>
10042830:	4b23      	ldr	r3, [pc, #140]	@ (100428c0 <HAL_RCCEx_GetPeriphCLKFreq+0xcc>)
10042832:	6e18      	ldr	r0, [r3, #96]	@ 0x60
10042834:	2304      	movs	r3, #4
10042836:	4018      	ands	r0, r3
10042838:	4243      	negs	r3, r0
1004283a:	4158      	adcs	r0, r3
1004283c:	4b22      	ldr	r3, [pc, #136]	@ (100428c8 <HAL_RCCEx_GetPeriphCLKFreq+0xd4>)
1004283e:	4240      	negs	r0, r0
10042840:	4018      	ands	r0, r3
10042842:	18c0      	adds	r0, r0, r3
10042844:	e7de      	b.n	10042804 <HAL_RCCEx_GetPeriphCLKFreq+0x10>
10042846:	4b1e      	ldr	r3, [pc, #120]	@ (100428c0 <HAL_RCCEx_GetPeriphCLKFreq+0xcc>)
10042848:	6898      	ldr	r0, [r3, #8]
1004284a:	2380      	movs	r3, #128	@ 0x80
1004284c:	015b      	lsls	r3, r3, #5
1004284e:	4018      	ands	r0, r3
10042850:	4243      	negs	r3, r0
10042852:	4158      	adcs	r0, r3
10042854:	4b1d      	ldr	r3, [pc, #116]	@ (100428cc <HAL_RCCEx_GetPeriphCLKFreq+0xd8>)
10042856:	4240      	negs	r0, r0
10042858:	e7f2      	b.n	10042840 <HAL_RCCEx_GetPeriphCLKFreq+0x4c>
1004285a:	4b19      	ldr	r3, [pc, #100]	@ (100428c0 <HAL_RCCEx_GetPeriphCLKFreq+0xcc>)
1004285c:	689a      	ldr	r2, [r3, #8]
1004285e:	6819      	ldr	r1, [r3, #0]
10042860:	4202      	tst	r2, r0
10042862:	d019      	beq.n	10042898 <HAL_RCCEx_GetPeriphCLKFreq+0xa4>
10042864:	2280      	movs	r2, #128	@ 0x80
10042866:	0292      	lsls	r2, r2, #10
10042868:	0008      	movs	r0, r1
1004286a:	4010      	ands	r0, r2
1004286c:	4211      	tst	r1, r2
1004286e:	d0c9      	beq.n	10042804 <HAL_RCCEx_GetPeriphCLKFreq+0x10>
10042870:	689a      	ldr	r2, [r3, #8]
10042872:	23c0      	movs	r3, #192	@ 0xc0
10042874:	0010      	movs	r0, r2
10042876:	041b      	lsls	r3, r3, #16
10042878:	4018      	ands	r0, r3
1004287a:	421a      	tst	r2, r3
1004287c:	d017      	beq.n	100428ae <HAL_RCCEx_GetPeriphCLKFreq+0xba>
1004287e:	2380      	movs	r3, #128	@ 0x80
10042880:	03db      	lsls	r3, r3, #15
10042882:	4298      	cmp	r0, r3
10042884:	d015      	beq.n	100428b2 <HAL_RCCEx_GetPeriphCLKFreq+0xbe>
10042886:	4b12      	ldr	r3, [pc, #72]	@ (100428d0 <HAL_RCCEx_GetPeriphCLKFreq+0xdc>)
10042888:	18c0      	adds	r0, r0, r3
1004288a:	1e43      	subs	r3, r0, #1
1004288c:	4198      	sbcs	r0, r3
1004288e:	4b11      	ldr	r3, [pc, #68]	@ (100428d4 <HAL_RCCEx_GetPeriphCLKFreq+0xe0>)
10042890:	4240      	negs	r0, r0
10042892:	4018      	ands	r0, r3
10042894:	4b10      	ldr	r3, [pc, #64]	@ (100428d8 <HAL_RCCEx_GetPeriphCLKFreq+0xe4>)
10042896:	e7d4      	b.n	10042842 <HAL_RCCEx_GetPeriphCLKFreq+0x4e>
10042898:	2280      	movs	r2, #128	@ 0x80
1004289a:	01d2      	lsls	r2, r2, #7
1004289c:	e7e4      	b.n	10042868 <HAL_RCCEx_GetPeriphCLKFreq+0x74>
1004289e:	4b08      	ldr	r3, [pc, #32]	@ (100428c0 <HAL_RCCEx_GetPeriphCLKFreq+0xcc>)
100428a0:	6898      	ldr	r0, [r3, #8]
100428a2:	4b0e      	ldr	r3, [pc, #56]	@ (100428dc <HAL_RCCEx_GetPeriphCLKFreq+0xe8>)
100428a4:	0480      	lsls	r0, r0, #18
100428a6:	17c0      	asrs	r0, r0, #31
100428a8:	4018      	ands	r0, r3
100428aa:	4b07      	ldr	r3, [pc, #28]	@ (100428c8 <HAL_RCCEx_GetPeriphCLKFreq+0xd4>)
100428ac:	e7c9      	b.n	10042842 <HAL_RCCEx_GetPeriphCLKFreq+0x4e>
100428ae:	4806      	ldr	r0, [pc, #24]	@ (100428c8 <HAL_RCCEx_GetPeriphCLKFreq+0xd4>)
100428b0:	e7a8      	b.n	10042804 <HAL_RCCEx_GetPeriphCLKFreq+0x10>
100428b2:	480b      	ldr	r0, [pc, #44]	@ (100428e0 <HAL_RCCEx_GetPeriphCLKFreq+0xec>)
100428b4:	e7a6      	b.n	10042804 <HAL_RCCEx_GetPeriphCLKFreq+0x10>
100428b6:	20fa      	movs	r0, #250	@ 0xfa
100428b8:	01c0      	lsls	r0, r0, #7
100428ba:	e7a3      	b.n	10042804 <HAL_RCCEx_GetPeriphCLKFreq+0x10>
100428bc:	4809      	ldr	r0, [pc, #36]	@ (100428e4 <HAL_RCCEx_GetPeriphCLKFreq+0xf0>)
100428be:	e7a1      	b.n	10042804 <HAL_RCCEx_GetPeriphCLKFreq+0x10>
100428c0:	48400000 	.word	0x48400000
100428c4:	ffff8000 	.word	0xffff8000
100428c8:	00f42400 	.word	0x00f42400
100428cc:	003d0900 	.word	0x003d0900
100428d0:	ff800000 	.word	0xff800000
100428d4:	fc2f7000 	.word	0xfc2f7000
100428d8:	03d09000 	.word	0x03d09000
100428dc:	ff0c5c00 	.word	0xff0c5c00
100428e0:	01e84800 	.word	0x01e84800
100428e4:	00007a12 	.word	0x00007a12

100428e8 <HAL_TIM_PeriodElapsedCallback>:
100428e8:	4770      	bx	lr

100428ea <HAL_TIM_OC_DelayElapsedCallback>:
100428ea:	4770      	bx	lr

100428ec <HAL_TIM_IC_CaptureCallback>:
100428ec:	4770      	bx	lr

100428ee <HAL_TIM_PWM_PulseFinishedCallback>:
100428ee:	4770      	bx	lr

100428f0 <HAL_TIM_TriggerCallback>:
100428f0:	4770      	bx	lr

100428f2 <HAL_TIM_IRQHandler>:
100428f2:	2202      	movs	r2, #2
100428f4:	6803      	ldr	r3, [r0, #0]
100428f6:	b570      	push	{r4, r5, r6, lr}
100428f8:	68dd      	ldr	r5, [r3, #12]
100428fa:	691e      	ldr	r6, [r3, #16]
100428fc:	0004      	movs	r4, r0
100428fe:	4216      	tst	r6, r2
10042900:	d00d      	beq.n	1004291e <HAL_TIM_IRQHandler+0x2c>
10042902:	4215      	tst	r5, r2
10042904:	d00b      	beq.n	1004291e <HAL_TIM_IRQHandler+0x2c>
10042906:	3a05      	subs	r2, #5
10042908:	611a      	str	r2, [r3, #16]
1004290a:	3204      	adds	r2, #4
1004290c:	7702      	strb	r2, [r0, #28]
1004290e:	699b      	ldr	r3, [r3, #24]
10042910:	079b      	lsls	r3, r3, #30
10042912:	d100      	bne.n	10042916 <HAL_TIM_IRQHandler+0x24>
10042914:	e071      	b.n	100429fa <HAL_TIM_IRQHandler+0x108>
10042916:	f7ff ffe9 	bl	100428ec <HAL_TIM_IC_CaptureCallback>
1004291a:	2300      	movs	r3, #0
1004291c:	7723      	strb	r3, [r4, #28]
1004291e:	2304      	movs	r3, #4
10042920:	421e      	tst	r6, r3
10042922:	d011      	beq.n	10042948 <HAL_TIM_IRQHandler+0x56>
10042924:	421d      	tst	r5, r3
10042926:	d00f      	beq.n	10042948 <HAL_TIM_IRQHandler+0x56>
10042928:	2205      	movs	r2, #5
1004292a:	6823      	ldr	r3, [r4, #0]
1004292c:	4252      	negs	r2, r2
1004292e:	611a      	str	r2, [r3, #16]
10042930:	3207      	adds	r2, #7
10042932:	7722      	strb	r2, [r4, #28]
10042934:	699a      	ldr	r2, [r3, #24]
10042936:	23c0      	movs	r3, #192	@ 0xc0
10042938:	009b      	lsls	r3, r3, #2
1004293a:	0020      	movs	r0, r4
1004293c:	421a      	tst	r2, r3
1004293e:	d062      	beq.n	10042a06 <HAL_TIM_IRQHandler+0x114>
10042940:	f7ff ffd4 	bl	100428ec <HAL_TIM_IC_CaptureCallback>
10042944:	2300      	movs	r3, #0
10042946:	7723      	strb	r3, [r4, #28]
10042948:	2308      	movs	r3, #8
1004294a:	421e      	tst	r6, r3
1004294c:	d00f      	beq.n	1004296e <HAL_TIM_IRQHandler+0x7c>
1004294e:	421d      	tst	r5, r3
10042950:	d00d      	beq.n	1004296e <HAL_TIM_IRQHandler+0x7c>
10042952:	2209      	movs	r2, #9
10042954:	6823      	ldr	r3, [r4, #0]
10042956:	4252      	negs	r2, r2
10042958:	611a      	str	r2, [r3, #16]
1004295a:	320d      	adds	r2, #13
1004295c:	7722      	strb	r2, [r4, #28]
1004295e:	69db      	ldr	r3, [r3, #28]
10042960:	0020      	movs	r0, r4
10042962:	079b      	lsls	r3, r3, #30
10042964:	d055      	beq.n	10042a12 <HAL_TIM_IRQHandler+0x120>
10042966:	f7ff ffc1 	bl	100428ec <HAL_TIM_IC_CaptureCallback>
1004296a:	2300      	movs	r3, #0
1004296c:	7723      	strb	r3, [r4, #28]
1004296e:	2310      	movs	r3, #16
10042970:	421e      	tst	r6, r3
10042972:	d011      	beq.n	10042998 <HAL_TIM_IRQHandler+0xa6>
10042974:	421d      	tst	r5, r3
10042976:	d00f      	beq.n	10042998 <HAL_TIM_IRQHandler+0xa6>
10042978:	2211      	movs	r2, #17
1004297a:	6823      	ldr	r3, [r4, #0]
1004297c:	4252      	negs	r2, r2
1004297e:	611a      	str	r2, [r3, #16]
10042980:	3219      	adds	r2, #25
10042982:	7722      	strb	r2, [r4, #28]
10042984:	69da      	ldr	r2, [r3, #28]
10042986:	23c0      	movs	r3, #192	@ 0xc0
10042988:	009b      	lsls	r3, r3, #2
1004298a:	0020      	movs	r0, r4
1004298c:	421a      	tst	r2, r3
1004298e:	d046      	beq.n	10042a1e <HAL_TIM_IRQHandler+0x12c>
10042990:	f7ff ffac 	bl	100428ec <HAL_TIM_IC_CaptureCallback>
10042994:	2300      	movs	r3, #0
10042996:	7723      	strb	r3, [r4, #28]
10042998:	2301      	movs	r3, #1
1004299a:	421e      	tst	r6, r3
1004299c:	d008      	beq.n	100429b0 <HAL_TIM_IRQHandler+0xbe>
1004299e:	421d      	tst	r5, r3
100429a0:	d006      	beq.n	100429b0 <HAL_TIM_IRQHandler+0xbe>
100429a2:	2202      	movs	r2, #2
100429a4:	6823      	ldr	r3, [r4, #0]
100429a6:	4252      	negs	r2, r2
100429a8:	0020      	movs	r0, r4
100429aa:	611a      	str	r2, [r3, #16]
100429ac:	f7ff ff9c 	bl	100428e8 <HAL_TIM_PeriodElapsedCallback>
100429b0:	2380      	movs	r3, #128	@ 0x80
100429b2:	421e      	tst	r6, r3
100429b4:	d008      	beq.n	100429c8 <HAL_TIM_IRQHandler+0xd6>
100429b6:	421d      	tst	r5, r3
100429b8:	d006      	beq.n	100429c8 <HAL_TIM_IRQHandler+0xd6>
100429ba:	2281      	movs	r2, #129	@ 0x81
100429bc:	6823      	ldr	r3, [r4, #0]
100429be:	4252      	negs	r2, r2
100429c0:	0020      	movs	r0, r4
100429c2:	611a      	str	r2, [r3, #16]
100429c4:	f000 f832 	bl	10042a2c <HAL_TIMEx_BreakCallback>
100429c8:	2340      	movs	r3, #64	@ 0x40
100429ca:	421e      	tst	r6, r3
100429cc:	d008      	beq.n	100429e0 <HAL_TIM_IRQHandler+0xee>
100429ce:	421d      	tst	r5, r3
100429d0:	d006      	beq.n	100429e0 <HAL_TIM_IRQHandler+0xee>
100429d2:	2241      	movs	r2, #65	@ 0x41
100429d4:	6823      	ldr	r3, [r4, #0]
100429d6:	4252      	negs	r2, r2
100429d8:	0020      	movs	r0, r4
100429da:	611a      	str	r2, [r3, #16]
100429dc:	f7ff ff88 	bl	100428f0 <HAL_TIM_TriggerCallback>
100429e0:	2320      	movs	r3, #32
100429e2:	421e      	tst	r6, r3
100429e4:	d008      	beq.n	100429f8 <HAL_TIM_IRQHandler+0x106>
100429e6:	421d      	tst	r5, r3
100429e8:	d006      	beq.n	100429f8 <HAL_TIM_IRQHandler+0x106>
100429ea:	2221      	movs	r2, #33	@ 0x21
100429ec:	6823      	ldr	r3, [r4, #0]
100429ee:	4252      	negs	r2, r2
100429f0:	0020      	movs	r0, r4
100429f2:	611a      	str	r2, [r3, #16]
100429f4:	f000 f819 	bl	10042a2a <HAL_TIMEx_CommutCallback>
100429f8:	bd70      	pop	{r4, r5, r6, pc}
100429fa:	f7ff ff76 	bl	100428ea <HAL_TIM_OC_DelayElapsedCallback>
100429fe:	0020      	movs	r0, r4
10042a00:	f7ff ff75 	bl	100428ee <HAL_TIM_PWM_PulseFinishedCallback>
10042a04:	e789      	b.n	1004291a <HAL_TIM_IRQHandler+0x28>
10042a06:	f7ff ff70 	bl	100428ea <HAL_TIM_OC_DelayElapsedCallback>
10042a0a:	0020      	movs	r0, r4
10042a0c:	f7ff ff6f 	bl	100428ee <HAL_TIM_PWM_PulseFinishedCallback>
10042a10:	e798      	b.n	10042944 <HAL_TIM_IRQHandler+0x52>
10042a12:	f7ff ff6a 	bl	100428ea <HAL_TIM_OC_DelayElapsedCallback>
10042a16:	0020      	movs	r0, r4
10042a18:	f7ff ff69 	bl	100428ee <HAL_TIM_PWM_PulseFinishedCallback>
10042a1c:	e7a5      	b.n	1004296a <HAL_TIM_IRQHandler+0x78>
10042a1e:	f7ff ff64 	bl	100428ea <HAL_TIM_OC_DelayElapsedCallback>
10042a22:	0020      	movs	r0, r4
10042a24:	f7ff ff63 	bl	100428ee <HAL_TIM_PWM_PulseFinishedCallback>
10042a28:	e7b4      	b.n	10042994 <HAL_TIM_IRQHandler+0xa2>

10042a2a <HAL_TIMEx_CommutCallback>:
10042a2a:	4770      	bx	lr

10042a2c <HAL_TIMEx_BreakCallback>:
10042a2c:	4770      	bx	lr
	...

10042a30 <UART_EndRxTransfer>:
10042a30:	b530      	push	{r4, r5, lr}
10042a32:	f3ef 8410 	mrs	r4, PRIMASK
10042a36:	2201      	movs	r2, #1
10042a38:	f382 8810 	msr	PRIMASK, r2
10042a3c:	6801      	ldr	r1, [r0, #0]
10042a3e:	4d13      	ldr	r5, [pc, #76]	@ (10042a8c <UART_EndRxTransfer+0x5c>)
10042a40:	680b      	ldr	r3, [r1, #0]
10042a42:	402b      	ands	r3, r5
10042a44:	600b      	str	r3, [r1, #0]
10042a46:	f384 8810 	msr	PRIMASK, r4
10042a4a:	f3ef 8110 	mrs	r1, PRIMASK
10042a4e:	f382 8810 	msr	PRIMASK, r2
10042a52:	6802      	ldr	r2, [r0, #0]
10042a54:	4c0e      	ldr	r4, [pc, #56]	@ (10042a90 <UART_EndRxTransfer+0x60>)
10042a56:	6893      	ldr	r3, [r2, #8]
10042a58:	4023      	ands	r3, r4
10042a5a:	6093      	str	r3, [r2, #8]
10042a5c:	f381 8810 	msr	PRIMASK, r1
10042a60:	6ec3      	ldr	r3, [r0, #108]	@ 0x6c
10042a62:	2b01      	cmp	r3, #1
10042a64:	d10a      	bne.n	10042a7c <UART_EndRxTransfer+0x4c>
10042a66:	f3ef 8110 	mrs	r1, PRIMASK
10042a6a:	f383 8810 	msr	PRIMASK, r3
10042a6e:	2410      	movs	r4, #16
10042a70:	6802      	ldr	r2, [r0, #0]
10042a72:	6813      	ldr	r3, [r2, #0]
10042a74:	43a3      	bics	r3, r4
10042a76:	6013      	str	r3, [r2, #0]
10042a78:	f381 8810 	msr	PRIMASK, r1
10042a7c:	0003      	movs	r3, r0
10042a7e:	2220      	movs	r2, #32
10042a80:	338c      	adds	r3, #140	@ 0x8c
10042a82:	601a      	str	r2, [r3, #0]
10042a84:	2300      	movs	r3, #0
10042a86:	66c3      	str	r3, [r0, #108]	@ 0x6c
10042a88:	6743      	str	r3, [r0, #116]	@ 0x74
10042a8a:	bd30      	pop	{r4, r5, pc}
10042a8c:	fffffedf 	.word	0xfffffedf
10042a90:	effffffe 	.word	0xeffffffe

10042a94 <HAL_UART_TxCpltCallback>:
10042a94:	4770      	bx	lr

10042a96 <HAL_UART_ErrorCallback>:
10042a96:	4770      	bx	lr

10042a98 <UART_DMAAbortOnError>:
10042a98:	6a80      	ldr	r0, [r0, #40]	@ 0x28
10042a9a:	2200      	movs	r2, #0
10042a9c:	0003      	movs	r3, r0
10042a9e:	b510      	push	{r4, lr}
10042aa0:	335e      	adds	r3, #94	@ 0x5e
10042aa2:	801a      	strh	r2, [r3, #0]
10042aa4:	f7ff fff7 	bl	10042a96 <HAL_UART_ErrorCallback>
10042aa8:	bd10      	pop	{r4, pc}

10042aaa <HAL_UARTEx_RxEventCallback>:
10042aaa:	4770      	bx	lr

10042aac <HAL_UART_IRQHandler>:
10042aac:	b5f7      	push	{r0, r1, r2, r4, r5, r6, r7, lr}
10042aae:	6801      	ldr	r1, [r0, #0]
10042ab0:	4dc3      	ldr	r5, [pc, #780]	@ (10042dc0 <HAL_UART_IRQHandler+0x314>)
10042ab2:	69cb      	ldr	r3, [r1, #28]
10042ab4:	0004      	movs	r4, r0
10042ab6:	680a      	ldr	r2, [r1, #0]
10042ab8:	6888      	ldr	r0, [r1, #8]
10042aba:	422b      	tst	r3, r5
10042abc:	d110      	bne.n	10042ae0 <HAL_UART_IRQHandler+0x34>
10042abe:	2520      	movs	r5, #32
10042ac0:	422b      	tst	r3, r5
10042ac2:	d100      	bne.n	10042ac6 <HAL_UART_IRQHandler+0x1a>
10042ac4:	e09b      	b.n	10042bfe <HAL_UART_IRQHandler+0x152>
10042ac6:	2680      	movs	r6, #128	@ 0x80
10042ac8:	0576      	lsls	r6, r6, #21
10042aca:	4015      	ands	r5, r2
10042acc:	4006      	ands	r6, r0
10042ace:	4335      	orrs	r5, r6
10042ad0:	d100      	bne.n	10042ad4 <HAL_UART_IRQHandler+0x28>
10042ad2:	e094      	b.n	10042bfe <HAL_UART_IRQHandler+0x152>
10042ad4:	6f63      	ldr	r3, [r4, #116]	@ 0x74
10042ad6:	0020      	movs	r0, r4
10042ad8:	2b00      	cmp	r3, #0
10042ada:	d000      	beq.n	10042ade <HAL_UART_IRQHandler+0x32>
10042adc:	e085      	b.n	10042bea <HAL_UART_IRQHandler+0x13e>
10042ade:	e085      	b.n	10042bec <HAL_UART_IRQHandler+0x140>
10042ae0:	4db8      	ldr	r5, [pc, #736]	@ (10042dc4 <HAL_UART_IRQHandler+0x318>)
10042ae2:	4005      	ands	r5, r0
10042ae4:	9500      	str	r5, [sp, #0]
10042ae6:	4db8      	ldr	r5, [pc, #736]	@ (10042dc8 <HAL_UART_IRQHandler+0x31c>)
10042ae8:	9e00      	ldr	r6, [sp, #0]
10042aea:	4015      	ands	r5, r2
10042aec:	4335      	orrs	r5, r6
10042aee:	d100      	bne.n	10042af2 <HAL_UART_IRQHandler+0x46>
10042af0:	e085      	b.n	10042bfe <HAL_UART_IRQHandler+0x152>
10042af2:	0025      	movs	r5, r4
10042af4:	2601      	movs	r6, #1
10042af6:	3590      	adds	r5, #144	@ 0x90
10042af8:	4233      	tst	r3, r6
10042afa:	d005      	beq.n	10042b08 <HAL_UART_IRQHandler+0x5c>
10042afc:	05d7      	lsls	r7, r2, #23
10042afe:	d503      	bpl.n	10042b08 <HAL_UART_IRQHandler+0x5c>
10042b00:	620e      	str	r6, [r1, #32]
10042b02:	682f      	ldr	r7, [r5, #0]
10042b04:	433e      	orrs	r6, r7
10042b06:	602e      	str	r6, [r5, #0]
10042b08:	2602      	movs	r6, #2
10042b0a:	4233      	tst	r3, r6
10042b0c:	d00c      	beq.n	10042b28 <HAL_UART_IRQHandler+0x7c>
10042b0e:	07c7      	lsls	r7, r0, #31
10042b10:	d50a      	bpl.n	10042b28 <HAL_UART_IRQHandler+0x7c>
10042b12:	0027      	movs	r7, r4
10042b14:	620e      	str	r6, [r1, #32]
10042b16:	3790      	adds	r7, #144	@ 0x90
10042b18:	683e      	ldr	r6, [r7, #0]
10042b1a:	9701      	str	r7, [sp, #4]
10042b1c:	46b4      	mov	ip, r6
10042b1e:	2604      	movs	r6, #4
10042b20:	4667      	mov	r7, ip
10042b22:	433e      	orrs	r6, r7
10042b24:	9f01      	ldr	r7, [sp, #4]
10042b26:	603e      	str	r6, [r7, #0]
10042b28:	2604      	movs	r6, #4
10042b2a:	4233      	tst	r3, r6
10042b2c:	d00c      	beq.n	10042b48 <HAL_UART_IRQHandler+0x9c>
10042b2e:	07c7      	lsls	r7, r0, #31
10042b30:	d50a      	bpl.n	10042b48 <HAL_UART_IRQHandler+0x9c>
10042b32:	0027      	movs	r7, r4
10042b34:	620e      	str	r6, [r1, #32]
10042b36:	3790      	adds	r7, #144	@ 0x90
10042b38:	683e      	ldr	r6, [r7, #0]
10042b3a:	9701      	str	r7, [sp, #4]
10042b3c:	46b4      	mov	ip, r6
10042b3e:	2602      	movs	r6, #2
10042b40:	4667      	mov	r7, ip
10042b42:	433e      	orrs	r6, r7
10042b44:	9f01      	ldr	r7, [sp, #4]
10042b46:	603e      	str	r6, [r7, #0]
10042b48:	2608      	movs	r6, #8
10042b4a:	46b4      	mov	ip, r6
10042b4c:	4233      	tst	r3, r6
10042b4e:	d009      	beq.n	10042b64 <HAL_UART_IRQHandler+0xb8>
10042b50:	2720      	movs	r7, #32
10042b52:	9e00      	ldr	r6, [sp, #0]
10042b54:	4017      	ands	r7, r2
10042b56:	4337      	orrs	r7, r6
10042b58:	d004      	beq.n	10042b64 <HAL_UART_IRQHandler+0xb8>
10042b5a:	4666      	mov	r6, ip
10042b5c:	620e      	str	r6, [r1, #32]
10042b5e:	682f      	ldr	r7, [r5, #0]
10042b60:	433e      	orrs	r6, r7
10042b62:	602e      	str	r6, [r5, #0]
10042b64:	2680      	movs	r6, #128	@ 0x80
10042b66:	0136      	lsls	r6, r6, #4
10042b68:	4233      	tst	r3, r6
10042b6a:	d006      	beq.n	10042b7a <HAL_UART_IRQHandler+0xce>
10042b6c:	0157      	lsls	r7, r2, #5
10042b6e:	d504      	bpl.n	10042b7a <HAL_UART_IRQHandler+0xce>
10042b70:	620e      	str	r6, [r1, #32]
10042b72:	2120      	movs	r1, #32
10042b74:	682e      	ldr	r6, [r5, #0]
10042b76:	4331      	orrs	r1, r6
10042b78:	6029      	str	r1, [r5, #0]
10042b7a:	6829      	ldr	r1, [r5, #0]
10042b7c:	2900      	cmp	r1, #0
10042b7e:	d035      	beq.n	10042bec <HAL_UART_IRQHandler+0x140>
10042b80:	2120      	movs	r1, #32
10042b82:	420b      	tst	r3, r1
10042b84:	d00a      	beq.n	10042b9c <HAL_UART_IRQHandler+0xf0>
10042b86:	2380      	movs	r3, #128	@ 0x80
10042b88:	055b      	lsls	r3, r3, #21
10042b8a:	4011      	ands	r1, r2
10042b8c:	4003      	ands	r3, r0
10042b8e:	4319      	orrs	r1, r3
10042b90:	d004      	beq.n	10042b9c <HAL_UART_IRQHandler+0xf0>
10042b92:	6f63      	ldr	r3, [r4, #116]	@ 0x74
10042b94:	2b00      	cmp	r3, #0
10042b96:	d001      	beq.n	10042b9c <HAL_UART_IRQHandler+0xf0>
10042b98:	0020      	movs	r0, r4
10042b9a:	4798      	blx	r3
10042b9c:	6822      	ldr	r2, [r4, #0]
10042b9e:	682b      	ldr	r3, [r5, #0]
10042ba0:	2740      	movs	r7, #64	@ 0x40
10042ba2:	6896      	ldr	r6, [r2, #8]
10042ba4:	2228      	movs	r2, #40	@ 0x28
10042ba6:	403e      	ands	r6, r7
10042ba8:	4013      	ands	r3, r2
10042baa:	0020      	movs	r0, r4
10042bac:	431e      	orrs	r6, r3
10042bae:	d022      	beq.n	10042bf6 <HAL_UART_IRQHandler+0x14a>
10042bb0:	f7ff ff3e 	bl	10042a30 <UART_EndRxTransfer>
10042bb4:	6823      	ldr	r3, [r4, #0]
10042bb6:	689b      	ldr	r3, [r3, #8]
10042bb8:	423b      	tst	r3, r7
10042bba:	d018      	beq.n	10042bee <HAL_UART_IRQHandler+0x142>
10042bbc:	f3ef 8110 	mrs	r1, PRIMASK
10042bc0:	2301      	movs	r3, #1
10042bc2:	f383 8810 	msr	PRIMASK, r3
10042bc6:	0025      	movs	r5, r4
10042bc8:	cd04      	ldmia	r5!, {r2}
10042bca:	6893      	ldr	r3, [r2, #8]
10042bcc:	43bb      	bics	r3, r7
10042bce:	6093      	str	r3, [r2, #8]
10042bd0:	f381 8810 	msr	PRIMASK, r1
10042bd4:	6fe8      	ldr	r0, [r5, #124]	@ 0x7c
10042bd6:	2800      	cmp	r0, #0
10042bd8:	d009      	beq.n	10042bee <HAL_UART_IRQHandler+0x142>
10042bda:	4b7c      	ldr	r3, [pc, #496]	@ (10042dcc <HAL_UART_IRQHandler+0x320>)
10042bdc:	6383      	str	r3, [r0, #56]	@ 0x38
10042bde:	f7fe fd03 	bl	100415e8 <HAL_DMA_Abort_IT>
10042be2:	2800      	cmp	r0, #0
10042be4:	d002      	beq.n	10042bec <HAL_UART_IRQHandler+0x140>
10042be6:	6fe8      	ldr	r0, [r5, #124]	@ 0x7c
10042be8:	6b83      	ldr	r3, [r0, #56]	@ 0x38
10042bea:	4798      	blx	r3
10042bec:	bdf7      	pop	{r0, r1, r2, r4, r5, r6, r7, pc}
10042bee:	0020      	movs	r0, r4
10042bf0:	f7ff ff51 	bl	10042a96 <HAL_UART_ErrorCallback>
10042bf4:	e7fa      	b.n	10042bec <HAL_UART_IRQHandler+0x140>
10042bf6:	f7ff ff4e 	bl	10042a96 <HAL_UART_ErrorCallback>
10042bfa:	602e      	str	r6, [r5, #0]
10042bfc:	e7f6      	b.n	10042bec <HAL_UART_IRQHandler+0x140>
10042bfe:	6ee5      	ldr	r5, [r4, #108]	@ 0x6c
10042c00:	2d01      	cmp	r5, #1
10042c02:	d000      	beq.n	10042c06 <HAL_UART_IRQHandler+0x15a>
10042c04:	e0a4      	b.n	10042d50 <HAL_UART_IRQHandler+0x2a4>
10042c06:	2610      	movs	r6, #16
10042c08:	4233      	tst	r3, r6
10042c0a:	d100      	bne.n	10042c0e <HAL_UART_IRQHandler+0x162>
10042c0c:	e0a0      	b.n	10042d50 <HAL_UART_IRQHandler+0x2a4>
10042c0e:	4232      	tst	r2, r6
10042c10:	d100      	bne.n	10042c14 <HAL_UART_IRQHandler+0x168>
10042c12:	e09d      	b.n	10042d50 <HAL_UART_IRQHandler+0x2a4>
10042c14:	0023      	movs	r3, r4
10042c16:	620e      	str	r6, [r1, #32]
10042c18:	6889      	ldr	r1, [r1, #8]
10042c1a:	335c      	adds	r3, #92	@ 0x5c
10042c1c:	0008      	movs	r0, r1
10042c1e:	881a      	ldrh	r2, [r3, #0]
10042c20:	2340      	movs	r3, #64	@ 0x40
10042c22:	4018      	ands	r0, r3
10042c24:	4219      	tst	r1, r3
10042c26:	d05e      	beq.n	10042ce6 <HAL_UART_IRQHandler+0x23a>
10042c28:	1d20      	adds	r0, r4, #4
10042c2a:	6fc1      	ldr	r1, [r0, #124]	@ 0x7c
10042c2c:	680f      	ldr	r7, [r1, #0]
10042c2e:	6879      	ldr	r1, [r7, #4]
10042c30:	b289      	uxth	r1, r1
10042c32:	2900      	cmp	r1, #0
10042c34:	d04d      	beq.n	10042cd2 <HAL_UART_IRQHandler+0x226>
10042c36:	4291      	cmp	r1, r2
10042c38:	d24b      	bcs.n	10042cd2 <HAL_UART_IRQHandler+0x226>
10042c3a:	0022      	movs	r2, r4
10042c3c:	325e      	adds	r2, #94	@ 0x5e
10042c3e:	8011      	strh	r1, [r2, #0]
10042c40:	2120      	movs	r1, #32
10042c42:	468c      	mov	ip, r1
10042c44:	683a      	ldr	r2, [r7, #0]
10042c46:	4011      	ands	r1, r2
10042c48:	9100      	str	r1, [sp, #0]
10042c4a:	4661      	mov	r1, ip
10042c4c:	420a      	tst	r2, r1
10042c4e:	d132      	bne.n	10042cb6 <HAL_UART_IRQHandler+0x20a>
10042c50:	f3ef 8710 	mrs	r7, PRIMASK
10042c54:	f385 8810 	msr	PRIMASK, r5
10042c58:	6821      	ldr	r1, [r4, #0]
10042c5a:	4e5d      	ldr	r6, [pc, #372]	@ (10042dd0 <HAL_UART_IRQHandler+0x324>)
10042c5c:	680a      	ldr	r2, [r1, #0]
10042c5e:	4032      	ands	r2, r6
10042c60:	600a      	str	r2, [r1, #0]
10042c62:	f387 8810 	msr	PRIMASK, r7
10042c66:	f3ef 8710 	mrs	r7, PRIMASK
10042c6a:	f385 8810 	msr	PRIMASK, r5
10042c6e:	6821      	ldr	r1, [r4, #0]
10042c70:	688a      	ldr	r2, [r1, #8]
10042c72:	43aa      	bics	r2, r5
10042c74:	608a      	str	r2, [r1, #8]
10042c76:	f387 8810 	msr	PRIMASK, r7
10042c7a:	f3ef 8710 	mrs	r7, PRIMASK
10042c7e:	f385 8810 	msr	PRIMASK, r5
10042c82:	6821      	ldr	r1, [r4, #0]
10042c84:	688a      	ldr	r2, [r1, #8]
10042c86:	439a      	bics	r2, r3
10042c88:	608a      	str	r2, [r1, #8]
10042c8a:	f387 8810 	msr	PRIMASK, r7
10042c8e:	0023      	movs	r3, r4
10042c90:	4662      	mov	r2, ip
10042c92:	338c      	adds	r3, #140	@ 0x8c
10042c94:	601a      	str	r2, [r3, #0]
10042c96:	9b00      	ldr	r3, [sp, #0]
10042c98:	66e3      	str	r3, [r4, #108]	@ 0x6c
10042c9a:	f3ef 8110 	mrs	r1, PRIMASK
10042c9e:	f385 8810 	msr	PRIMASK, r5
10042ca2:	6822      	ldr	r2, [r4, #0]
10042ca4:	350f      	adds	r5, #15
10042ca6:	6813      	ldr	r3, [r2, #0]
10042ca8:	43ab      	bics	r3, r5
10042caa:	6013      	str	r3, [r2, #0]
10042cac:	f381 8810 	msr	PRIMASK, r1
10042cb0:	6fc0      	ldr	r0, [r0, #124]	@ 0x7c
10042cb2:	f7fe fc77 	bl	100415a4 <HAL_DMA_Abort>
10042cb6:	2302      	movs	r3, #2
10042cb8:	0022      	movs	r2, r4
10042cba:	6723      	str	r3, [r4, #112]	@ 0x70
10042cbc:	0023      	movs	r3, r4
10042cbe:	325c      	adds	r2, #92	@ 0x5c
10042cc0:	335e      	adds	r3, #94	@ 0x5e
10042cc2:	881b      	ldrh	r3, [r3, #0]
10042cc4:	8811      	ldrh	r1, [r2, #0]
10042cc6:	1ac9      	subs	r1, r1, r3
10042cc8:	b289      	uxth	r1, r1
10042cca:	0020      	movs	r0, r4
10042ccc:	f7ff feed 	bl	10042aaa <HAL_UARTEx_RxEventCallback>
10042cd0:	e78c      	b.n	10042bec <HAL_UART_IRQHandler+0x140>
10042cd2:	4291      	cmp	r1, r2
10042cd4:	d000      	beq.n	10042cd8 <HAL_UART_IRQHandler+0x22c>
10042cd6:	e789      	b.n	10042bec <HAL_UART_IRQHandler+0x140>
10042cd8:	683b      	ldr	r3, [r7, #0]
10042cda:	069b      	lsls	r3, r3, #26
10042cdc:	d400      	bmi.n	10042ce0 <HAL_UART_IRQHandler+0x234>
10042cde:	e785      	b.n	10042bec <HAL_UART_IRQHandler+0x140>
10042ce0:	2302      	movs	r3, #2
10042ce2:	6723      	str	r3, [r4, #112]	@ 0x70
10042ce4:	e7f1      	b.n	10042cca <HAL_UART_IRQHandler+0x21e>
10042ce6:	0021      	movs	r1, r4
10042ce8:	315e      	adds	r1, #94	@ 0x5e
10042cea:	880b      	ldrh	r3, [r1, #0]
10042cec:	8809      	ldrh	r1, [r1, #0]
10042cee:	b29b      	uxth	r3, r3
10042cf0:	2900      	cmp	r1, #0
10042cf2:	d100      	bne.n	10042cf6 <HAL_UART_IRQHandler+0x24a>
10042cf4:	e77a      	b.n	10042bec <HAL_UART_IRQHandler+0x140>
10042cf6:	1ad2      	subs	r2, r2, r3
10042cf8:	b291      	uxth	r1, r2
10042cfa:	2900      	cmp	r1, #0
10042cfc:	d100      	bne.n	10042d00 <HAL_UART_IRQHandler+0x254>
10042cfe:	e775      	b.n	10042bec <HAL_UART_IRQHandler+0x140>
10042d00:	f3ef 8710 	mrs	r7, PRIMASK
10042d04:	f385 8810 	msr	PRIMASK, r5
10042d08:	6822      	ldr	r2, [r4, #0]
10042d0a:	4e32      	ldr	r6, [pc, #200]	@ (10042dd4 <HAL_UART_IRQHandler+0x328>)
10042d0c:	6813      	ldr	r3, [r2, #0]
10042d0e:	4033      	ands	r3, r6
10042d10:	6013      	str	r3, [r2, #0]
10042d12:	f387 8810 	msr	PRIMASK, r7
10042d16:	f3ef 8710 	mrs	r7, PRIMASK
10042d1a:	f385 8810 	msr	PRIMASK, r5
10042d1e:	6822      	ldr	r2, [r4, #0]
10042d20:	4e2d      	ldr	r6, [pc, #180]	@ (10042dd8 <HAL_UART_IRQHandler+0x32c>)
10042d22:	6893      	ldr	r3, [r2, #8]
10042d24:	4033      	ands	r3, r6
10042d26:	6093      	str	r3, [r2, #8]
10042d28:	f387 8810 	msr	PRIMASK, r7
10042d2c:	0023      	movs	r3, r4
10042d2e:	2220      	movs	r2, #32
10042d30:	338c      	adds	r3, #140	@ 0x8c
10042d32:	601a      	str	r2, [r3, #0]
10042d34:	66e0      	str	r0, [r4, #108]	@ 0x6c
10042d36:	6760      	str	r0, [r4, #116]	@ 0x74
10042d38:	f3ef 8010 	mrs	r0, PRIMASK
10042d3c:	f385 8810 	msr	PRIMASK, r5
10042d40:	2510      	movs	r5, #16
10042d42:	6822      	ldr	r2, [r4, #0]
10042d44:	6813      	ldr	r3, [r2, #0]
10042d46:	43ab      	bics	r3, r5
10042d48:	6013      	str	r3, [r2, #0]
10042d4a:	f380 8810 	msr	PRIMASK, r0
10042d4e:	e7c7      	b.n	10042ce0 <HAL_UART_IRQHandler+0x234>
10042d50:	2580      	movs	r5, #128	@ 0x80
10042d52:	036d      	lsls	r5, r5, #13
10042d54:	422b      	tst	r3, r5
10042d56:	d006      	beq.n	10042d66 <HAL_UART_IRQHandler+0x2ba>
10042d58:	0246      	lsls	r6, r0, #9
10042d5a:	d504      	bpl.n	10042d66 <HAL_UART_IRQHandler+0x2ba>
10042d5c:	0020      	movs	r0, r4
10042d5e:	620d      	str	r5, [r1, #32]
10042d60:	f000 fa54 	bl	1004320c <HAL_UARTEx_WakeupCallback>
10042d64:	e742      	b.n	10042bec <HAL_UART_IRQHandler+0x140>
10042d66:	2180      	movs	r1, #128	@ 0x80
10042d68:	420b      	tst	r3, r1
10042d6a:	d007      	beq.n	10042d7c <HAL_UART_IRQHandler+0x2d0>
10042d6c:	2580      	movs	r5, #128	@ 0x80
10042d6e:	042d      	lsls	r5, r5, #16
10042d70:	4011      	ands	r1, r2
10042d72:	4028      	ands	r0, r5
10042d74:	4301      	orrs	r1, r0
10042d76:	d001      	beq.n	10042d7c <HAL_UART_IRQHandler+0x2d0>
10042d78:	6fa3      	ldr	r3, [r4, #120]	@ 0x78
10042d7a:	e6ac      	b.n	10042ad6 <HAL_UART_IRQHandler+0x2a>
10042d7c:	2140      	movs	r1, #64	@ 0x40
10042d7e:	420b      	tst	r3, r1
10042d80:	d016      	beq.n	10042db0 <HAL_UART_IRQHandler+0x304>
10042d82:	420a      	tst	r2, r1
10042d84:	d014      	beq.n	10042db0 <HAL_UART_IRQHandler+0x304>
10042d86:	f3ef 8010 	mrs	r0, PRIMASK
10042d8a:	2301      	movs	r3, #1
10042d8c:	f383 8810 	msr	PRIMASK, r3
10042d90:	6822      	ldr	r2, [r4, #0]
10042d92:	6813      	ldr	r3, [r2, #0]
10042d94:	438b      	bics	r3, r1
10042d96:	6013      	str	r3, [r2, #0]
10042d98:	f380 8810 	msr	PRIMASK, r0
10042d9c:	0023      	movs	r3, r4
10042d9e:	2220      	movs	r2, #32
10042da0:	3388      	adds	r3, #136	@ 0x88
10042da2:	601a      	str	r2, [r3, #0]
10042da4:	2300      	movs	r3, #0
10042da6:	0020      	movs	r0, r4
10042da8:	67a3      	str	r3, [r4, #120]	@ 0x78
10042daa:	f7ff fe73 	bl	10042a94 <HAL_UART_TxCpltCallback>
10042dae:	e71d      	b.n	10042bec <HAL_UART_IRQHandler+0x140>
10042db0:	0219      	lsls	r1, r3, #8
10042db2:	d513      	bpl.n	10042ddc <HAL_UART_IRQHandler+0x330>
10042db4:	0051      	lsls	r1, r2, #1
10042db6:	d511      	bpl.n	10042ddc <HAL_UART_IRQHandler+0x330>
10042db8:	0020      	movs	r0, r4
10042dba:	f000 fa29 	bl	10043210 <HAL_UARTEx_TxFifoEmptyCallback>
10042dbe:	e715      	b.n	10042bec <HAL_UART_IRQHandler+0x140>
10042dc0:	0000080f 	.word	0x0000080f
10042dc4:	10000001 	.word	0x10000001
10042dc8:	04000120 	.word	0x04000120
10042dcc:	10042a99 	.word	0x10042a99
10042dd0:	fffffeff 	.word	0xfffffeff
10042dd4:	fffffedf 	.word	0xfffffedf
10042dd8:	effffffe 	.word	0xeffffffe
10042ddc:	01db      	lsls	r3, r3, #7
10042dde:	d400      	bmi.n	10042de2 <HAL_UART_IRQHandler+0x336>
10042de0:	e704      	b.n	10042bec <HAL_UART_IRQHandler+0x140>
10042de2:	2a00      	cmp	r2, #0
10042de4:	db00      	blt.n	10042de8 <HAL_UART_IRQHandler+0x33c>
10042de6:	e701      	b.n	10042bec <HAL_UART_IRQHandler+0x140>
10042de8:	0020      	movs	r0, r4
10042dea:	f000 fa10 	bl	1004320e <HAL_UARTEx_RxFifoFullCallback>
10042dee:	e6fd      	b.n	10042bec <HAL_UART_IRQHandler+0x140>

10042df0 <UART_SetConfig>:
10042df0:	b5f8      	push	{r3, r4, r5, r6, r7, lr}
10042df2:	6901      	ldr	r1, [r0, #16]
10042df4:	6883      	ldr	r3, [r0, #8]
10042df6:	6805      	ldr	r5, [r0, #0]
10042df8:	430b      	orrs	r3, r1
10042dfa:	6941      	ldr	r1, [r0, #20]
10042dfc:	682a      	ldr	r2, [r5, #0]
10042dfe:	69c7      	ldr	r7, [r0, #28]
10042e00:	430b      	orrs	r3, r1
10042e02:	493f      	ldr	r1, [pc, #252]	@ (10042f00 <UART_SetConfig+0x110>)
10042e04:	433b      	orrs	r3, r7
10042e06:	400a      	ands	r2, r1
10042e08:	4313      	orrs	r3, r2
10042e0a:	602b      	str	r3, [r5, #0]
10042e0c:	686b      	ldr	r3, [r5, #4]
10042e0e:	4a3d      	ldr	r2, [pc, #244]	@ (10042f04 <UART_SetConfig+0x114>)
10042e10:	0004      	movs	r4, r0
10042e12:	4013      	ands	r3, r2
10042e14:	68c2      	ldr	r2, [r0, #12]
10042e16:	6981      	ldr	r1, [r0, #24]
10042e18:	4313      	orrs	r3, r2
10042e1a:	4a3b      	ldr	r2, [pc, #236]	@ (10042f08 <UART_SetConfig+0x118>)
10042e1c:	606b      	str	r3, [r5, #4]
10042e1e:	4295      	cmp	r5, r2
10042e20:	d001      	beq.n	10042e26 <UART_SetConfig+0x36>
10042e22:	6a03      	ldr	r3, [r0, #32]
10042e24:	4319      	orrs	r1, r3
10042e26:	260f      	movs	r6, #15
10042e28:	68ab      	ldr	r3, [r5, #8]
10042e2a:	4838      	ldr	r0, [pc, #224]	@ (10042f0c <UART_SetConfig+0x11c>)
10042e2c:	4003      	ands	r3, r0
10042e2e:	430b      	orrs	r3, r1
10042e30:	60ab      	str	r3, [r5, #8]
10042e32:	6aeb      	ldr	r3, [r5, #44]	@ 0x2c
10042e34:	6a61      	ldr	r1, [r4, #36]	@ 0x24
10042e36:	43b3      	bics	r3, r6
10042e38:	430b      	orrs	r3, r1
10042e3a:	62eb      	str	r3, [r5, #44]	@ 0x2c
10042e3c:	4295      	cmp	r5, r2
10042e3e:	d137      	bne.n	10042eb0 <UART_SetConfig+0xc0>
10042e40:	2010      	movs	r0, #16
10042e42:	f7ff fcd7 	bl	100427f4 <HAL_RCCEx_GetPeriphCLKFreq>
10042e46:	1e06      	subs	r6, r0, #0
10042e48:	d030      	beq.n	10042eac <UART_SetConfig+0xbc>
10042e4a:	6a62      	ldr	r2, [r4, #36]	@ 0x24
10042e4c:	4b30      	ldr	r3, [pc, #192]	@ (10042f10 <UART_SetConfig+0x120>)
10042e4e:	0052      	lsls	r2, r2, #1
10042e50:	5ad7      	ldrh	r7, [r2, r3]
10042e52:	0039      	movs	r1, r7
10042e54:	f7fd f972 	bl	1004013c <__udivsi3>
10042e58:	2303      	movs	r3, #3
10042e5a:	6865      	ldr	r5, [r4, #4]
10042e5c:	436b      	muls	r3, r5
10042e5e:	4283      	cmp	r3, r0
10042e60:	d906      	bls.n	10042e70 <UART_SetConfig+0x80>
10042e62:	2001      	movs	r0, #1
10042e64:	4b2b      	ldr	r3, [pc, #172]	@ (10042f14 <UART_SetConfig+0x124>)
10042e66:	66a3      	str	r3, [r4, #104]	@ 0x68
10042e68:	2300      	movs	r3, #0
10042e6a:	6763      	str	r3, [r4, #116]	@ 0x74
10042e6c:	67a3      	str	r3, [r4, #120]	@ 0x78
10042e6e:	bdf8      	pop	{r3, r4, r5, r6, r7, pc}
10042e70:	032b      	lsls	r3, r5, #12
10042e72:	4283      	cmp	r3, r0
10042e74:	d3f5      	bcc.n	10042e62 <UART_SetConfig+0x72>
10042e76:	2300      	movs	r3, #0
10042e78:	003a      	movs	r2, r7
10042e7a:	0030      	movs	r0, r6
10042e7c:	0019      	movs	r1, r3
10042e7e:	f7fd fad3 	bl	10040428 <__aeabi_uldivmod>
10042e82:	2700      	movs	r7, #0
10042e84:	0e06      	lsrs	r6, r0, #24
10042e86:	020b      	lsls	r3, r1, #8
10042e88:	4333      	orrs	r3, r6
10042e8a:	0202      	lsls	r2, r0, #8
10042e8c:	086e      	lsrs	r6, r5, #1
10042e8e:	1992      	adds	r2, r2, r6
10042e90:	417b      	adcs	r3, r7
10042e92:	0010      	movs	r0, r2
10042e94:	0019      	movs	r1, r3
10042e96:	002a      	movs	r2, r5
10042e98:	003b      	movs	r3, r7
10042e9a:	f7fd fac5 	bl	10040428 <__aeabi_uldivmod>
10042e9e:	4b1e      	ldr	r3, [pc, #120]	@ (10042f18 <UART_SetConfig+0x128>)
10042ea0:	18c2      	adds	r2, r0, r3
10042ea2:	4b1e      	ldr	r3, [pc, #120]	@ (10042f1c <UART_SetConfig+0x12c>)
10042ea4:	429a      	cmp	r2, r3
10042ea6:	d8dc      	bhi.n	10042e62 <UART_SetConfig+0x72>
10042ea8:	6823      	ldr	r3, [r4, #0]
10042eaa:	60d8      	str	r0, [r3, #12]
10042eac:	2000      	movs	r0, #0
10042eae:	e7d9      	b.n	10042e64 <UART_SetConfig+0x74>
10042eb0:	4b17      	ldr	r3, [pc, #92]	@ (10042f10 <UART_SetConfig+0x120>)
10042eb2:	0049      	lsls	r1, r1, #1
10042eb4:	5ac9      	ldrh	r1, [r1, r3]
10042eb6:	481a      	ldr	r0, [pc, #104]	@ (10042f20 <UART_SetConfig+0x130>)
10042eb8:	f7fd f940 	bl	1004013c <__udivsi3>
10042ebc:	2280      	movs	r2, #128	@ 0x80
10042ebe:	6861      	ldr	r1, [r4, #4]
10042ec0:	0212      	lsls	r2, r2, #8
10042ec2:	084b      	lsrs	r3, r1, #1
10042ec4:	4297      	cmp	r7, r2
10042ec6:	d110      	bne.n	10042eea <UART_SetConfig+0xfa>
10042ec8:	0040      	lsls	r0, r0, #1
10042eca:	18c0      	adds	r0, r0, r3
10042ecc:	f7fd f936 	bl	1004013c <__udivsi3>
10042ed0:	0003      	movs	r3, r0
10042ed2:	4a14      	ldr	r2, [pc, #80]	@ (10042f24 <UART_SetConfig+0x134>)
10042ed4:	3b10      	subs	r3, #16
10042ed6:	4293      	cmp	r3, r2
10042ed8:	d8c3      	bhi.n	10042e62 <UART_SetConfig+0x72>
10042eda:	0003      	movs	r3, r0
10042edc:	0700      	lsls	r0, r0, #28
10042ede:	43b3      	bics	r3, r6
10042ee0:	b29b      	uxth	r3, r3
10042ee2:	0f40      	lsrs	r0, r0, #29
10042ee4:	4303      	orrs	r3, r0
10042ee6:	60eb      	str	r3, [r5, #12]
10042ee8:	e7e0      	b.n	10042eac <UART_SetConfig+0xbc>
10042eea:	1818      	adds	r0, r3, r0
10042eec:	f7fd f926 	bl	1004013c <__udivsi3>
10042ef0:	0003      	movs	r3, r0
10042ef2:	4a0c      	ldr	r2, [pc, #48]	@ (10042f24 <UART_SetConfig+0x134>)
10042ef4:	3b10      	subs	r3, #16
10042ef6:	4293      	cmp	r3, r2
10042ef8:	d8b3      	bhi.n	10042e62 <UART_SetConfig+0x72>
10042efa:	60e8      	str	r0, [r5, #12]
10042efc:	e7d6      	b.n	10042eac <UART_SetConfig+0xbc>
10042efe:	46c0      	nop			@ (mov r8, r8)
10042f00:	cfff69f3 	.word	0xcfff69f3
10042f04:	ffffcfff 	.word	0xffffcfff
10042f08:	41005000 	.word	0x41005000
10042f0c:	11fff4ff 	.word	0x11fff4ff
10042f10:	10043ece 	.word	0x10043ece
10042f14:	00010001 	.word	0x00010001
10042f18:	fffffd00 	.word	0xfffffd00
10042f1c:	000ffcff 	.word	0x000ffcff
10042f20:	00f42400 	.word	0x00f42400
10042f24:	0000ffef 	.word	0x0000ffef

10042f28 <UART_AdvFeatureConfig>:
10042f28:	6a83      	ldr	r3, [r0, #40]	@ 0x28
10042f2a:	b530      	push	{r4, r5, lr}
10042f2c:	071a      	lsls	r2, r3, #28
10042f2e:	d506      	bpl.n	10042f3e <UART_AdvFeatureConfig+0x16>
10042f30:	6801      	ldr	r1, [r0, #0]
10042f32:	4c28      	ldr	r4, [pc, #160]	@ (10042fd4 <UART_AdvFeatureConfig+0xac>)
10042f34:	684a      	ldr	r2, [r1, #4]
10042f36:	4022      	ands	r2, r4
10042f38:	6b84      	ldr	r4, [r0, #56]	@ 0x38
10042f3a:	4322      	orrs	r2, r4
10042f3c:	604a      	str	r2, [r1, #4]
10042f3e:	07da      	lsls	r2, r3, #31
10042f40:	d506      	bpl.n	10042f50 <UART_AdvFeatureConfig+0x28>
10042f42:	6801      	ldr	r1, [r0, #0]
10042f44:	4c24      	ldr	r4, [pc, #144]	@ (10042fd8 <UART_AdvFeatureConfig+0xb0>)
10042f46:	684a      	ldr	r2, [r1, #4]
10042f48:	4022      	ands	r2, r4
10042f4a:	6ac4      	ldr	r4, [r0, #44]	@ 0x2c
10042f4c:	4322      	orrs	r2, r4
10042f4e:	604a      	str	r2, [r1, #4]
10042f50:	079a      	lsls	r2, r3, #30
10042f52:	d506      	bpl.n	10042f62 <UART_AdvFeatureConfig+0x3a>
10042f54:	6801      	ldr	r1, [r0, #0]
10042f56:	4c21      	ldr	r4, [pc, #132]	@ (10042fdc <UART_AdvFeatureConfig+0xb4>)
10042f58:	684a      	ldr	r2, [r1, #4]
10042f5a:	4022      	ands	r2, r4
10042f5c:	6b04      	ldr	r4, [r0, #48]	@ 0x30
10042f5e:	4322      	orrs	r2, r4
10042f60:	604a      	str	r2, [r1, #4]
10042f62:	075a      	lsls	r2, r3, #29
10042f64:	d506      	bpl.n	10042f74 <UART_AdvFeatureConfig+0x4c>
10042f66:	6801      	ldr	r1, [r0, #0]
10042f68:	4c1d      	ldr	r4, [pc, #116]	@ (10042fe0 <UART_AdvFeatureConfig+0xb8>)
10042f6a:	684a      	ldr	r2, [r1, #4]
10042f6c:	4022      	ands	r2, r4
10042f6e:	6b44      	ldr	r4, [r0, #52]	@ 0x34
10042f70:	4322      	orrs	r2, r4
10042f72:	604a      	str	r2, [r1, #4]
10042f74:	06da      	lsls	r2, r3, #27
10042f76:	d506      	bpl.n	10042f86 <UART_AdvFeatureConfig+0x5e>
10042f78:	6801      	ldr	r1, [r0, #0]
10042f7a:	4c1a      	ldr	r4, [pc, #104]	@ (10042fe4 <UART_AdvFeatureConfig+0xbc>)
10042f7c:	688a      	ldr	r2, [r1, #8]
10042f7e:	4022      	ands	r2, r4
10042f80:	6bc4      	ldr	r4, [r0, #60]	@ 0x3c
10042f82:	4322      	orrs	r2, r4
10042f84:	608a      	str	r2, [r1, #8]
10042f86:	069a      	lsls	r2, r3, #26
10042f88:	d506      	bpl.n	10042f98 <UART_AdvFeatureConfig+0x70>
10042f8a:	6801      	ldr	r1, [r0, #0]
10042f8c:	4c16      	ldr	r4, [pc, #88]	@ (10042fe8 <UART_AdvFeatureConfig+0xc0>)
10042f8e:	688a      	ldr	r2, [r1, #8]
10042f90:	4022      	ands	r2, r4
10042f92:	6c04      	ldr	r4, [r0, #64]	@ 0x40
10042f94:	4322      	orrs	r2, r4
10042f96:	608a      	str	r2, [r1, #8]
10042f98:	065a      	lsls	r2, r3, #25
10042f9a:	d510      	bpl.n	10042fbe <UART_AdvFeatureConfig+0x96>
10042f9c:	6801      	ldr	r1, [r0, #0]
10042f9e:	4d13      	ldr	r5, [pc, #76]	@ (10042fec <UART_AdvFeatureConfig+0xc4>)
10042fa0:	684a      	ldr	r2, [r1, #4]
10042fa2:	6c44      	ldr	r4, [r0, #68]	@ 0x44
10042fa4:	402a      	ands	r2, r5
10042fa6:	4322      	orrs	r2, r4
10042fa8:	604a      	str	r2, [r1, #4]
10042faa:	2280      	movs	r2, #128	@ 0x80
10042fac:	0352      	lsls	r2, r2, #13
10042fae:	4294      	cmp	r4, r2
10042fb0:	d105      	bne.n	10042fbe <UART_AdvFeatureConfig+0x96>
10042fb2:	684a      	ldr	r2, [r1, #4]
10042fb4:	4c0e      	ldr	r4, [pc, #56]	@ (10042ff0 <UART_AdvFeatureConfig+0xc8>)
10042fb6:	4022      	ands	r2, r4
10042fb8:	6c84      	ldr	r4, [r0, #72]	@ 0x48
10042fba:	4322      	orrs	r2, r4
10042fbc:	604a      	str	r2, [r1, #4]
10042fbe:	061b      	lsls	r3, r3, #24
10042fc0:	d506      	bpl.n	10042fd0 <UART_AdvFeatureConfig+0xa8>
10042fc2:	6802      	ldr	r2, [r0, #0]
10042fc4:	490b      	ldr	r1, [pc, #44]	@ (10042ff4 <UART_AdvFeatureConfig+0xcc>)
10042fc6:	6853      	ldr	r3, [r2, #4]
10042fc8:	400b      	ands	r3, r1
10042fca:	6cc1      	ldr	r1, [r0, #76]	@ 0x4c
10042fcc:	430b      	orrs	r3, r1
10042fce:	6053      	str	r3, [r2, #4]
10042fd0:	bd30      	pop	{r4, r5, pc}
10042fd2:	46c0      	nop			@ (mov r8, r8)
10042fd4:	ffff7fff 	.word	0xffff7fff
10042fd8:	fffdffff 	.word	0xfffdffff
10042fdc:	fffeffff 	.word	0xfffeffff
10042fe0:	fffbffff 	.word	0xfffbffff
10042fe4:	ffffefff 	.word	0xffffefff
10042fe8:	ffffdfff 	.word	0xffffdfff
10042fec:	ffefffff 	.word	0xffefffff
10042ff0:	ff9fffff 	.word	0xff9fffff
10042ff4:	fff7ffff 	.word	0xfff7ffff

10042ff8 <UART_WaitOnFlagUntilTimeout>:
10042ff8:	b5f7      	push	{r0, r1, r2, r4, r5, r6, r7, lr}
10042ffa:	0004      	movs	r4, r0
10042ffc:	000d      	movs	r5, r1
10042ffe:	0017      	movs	r7, r2
10043000:	9300      	str	r3, [sp, #0]
10043002:	6822      	ldr	r2, [r4, #0]
10043004:	69d3      	ldr	r3, [r2, #28]
10043006:	402b      	ands	r3, r5
10043008:	1b5b      	subs	r3, r3, r5
1004300a:	4259      	negs	r1, r3
1004300c:	414b      	adcs	r3, r1
1004300e:	42bb      	cmp	r3, r7
10043010:	d001      	beq.n	10043016 <UART_WaitOnFlagUntilTimeout+0x1e>
10043012:	2000      	movs	r0, #0
10043014:	e026      	b.n	10043064 <UART_WaitOnFlagUntilTimeout+0x6c>
10043016:	9b08      	ldr	r3, [sp, #32]
10043018:	3301      	adds	r3, #1
1004301a:	d0f3      	beq.n	10043004 <UART_WaitOnFlagUntilTimeout+0xc>
1004301c:	f7fe fa66 	bl	100414ec <HAL_GetTick>
10043020:	9b00      	ldr	r3, [sp, #0]
10043022:	1ac0      	subs	r0, r0, r3
10043024:	9b08      	ldr	r3, [sp, #32]
10043026:	4298      	cmp	r0, r3
10043028:	d82d      	bhi.n	10043086 <UART_WaitOnFlagUntilTimeout+0x8e>
1004302a:	2b00      	cmp	r3, #0
1004302c:	d02b      	beq.n	10043086 <UART_WaitOnFlagUntilTimeout+0x8e>
1004302e:	6823      	ldr	r3, [r4, #0]
10043030:	681a      	ldr	r2, [r3, #0]
10043032:	0752      	lsls	r2, r2, #29
10043034:	d5e5      	bpl.n	10043002 <UART_WaitOnFlagUntilTimeout+0xa>
10043036:	002a      	movs	r2, r5
10043038:	2140      	movs	r1, #64	@ 0x40
1004303a:	3a40      	subs	r2, #64	@ 0x40
1004303c:	438a      	bics	r2, r1
1004303e:	d0e0      	beq.n	10043002 <UART_WaitOnFlagUntilTimeout+0xa>
10043040:	69da      	ldr	r2, [r3, #28]
10043042:	2608      	movs	r6, #8
10043044:	0011      	movs	r1, r2
10043046:	4031      	ands	r1, r6
10043048:	9101      	str	r1, [sp, #4]
1004304a:	4232      	tst	r2, r6
1004304c:	d00b      	beq.n	10043066 <UART_WaitOnFlagUntilTimeout+0x6e>
1004304e:	0020      	movs	r0, r4
10043050:	621e      	str	r6, [r3, #32]
10043052:	f7ff fced 	bl	10042a30 <UART_EndRxTransfer>
10043056:	0023      	movs	r3, r4
10043058:	3390      	adds	r3, #144	@ 0x90
1004305a:	601e      	str	r6, [r3, #0]
1004305c:	2300      	movs	r3, #0
1004305e:	2001      	movs	r0, #1
10043060:	3484      	adds	r4, #132	@ 0x84
10043062:	7023      	strb	r3, [r4, #0]
10043064:	bdfe      	pop	{r1, r2, r3, r4, r5, r6, r7, pc}
10043066:	2280      	movs	r2, #128	@ 0x80
10043068:	69d9      	ldr	r1, [r3, #28]
1004306a:	0112      	lsls	r2, r2, #4
1004306c:	4211      	tst	r1, r2
1004306e:	d0c8      	beq.n	10043002 <UART_WaitOnFlagUntilTimeout+0xa>
10043070:	621a      	str	r2, [r3, #32]
10043072:	0020      	movs	r0, r4
10043074:	f7ff fcdc 	bl	10042a30 <UART_EndRxTransfer>
10043078:	0023      	movs	r3, r4
1004307a:	2220      	movs	r2, #32
1004307c:	3390      	adds	r3, #144	@ 0x90
1004307e:	601a      	str	r2, [r3, #0]
10043080:	9b01      	ldr	r3, [sp, #4]
10043082:	3484      	adds	r4, #132	@ 0x84
10043084:	7023      	strb	r3, [r4, #0]
10043086:	2003      	movs	r0, #3
10043088:	e7ec      	b.n	10043064 <UART_WaitOnFlagUntilTimeout+0x6c>
	...

1004308c <UART_CheckIdleState>:
1004308c:	0003      	movs	r3, r0
1004308e:	b573      	push	{r0, r1, r4, r5, r6, lr}
10043090:	2600      	movs	r6, #0
10043092:	0004      	movs	r4, r0
10043094:	3390      	adds	r3, #144	@ 0x90
10043096:	601e      	str	r6, [r3, #0]
10043098:	f7fe fa28 	bl	100414ec <HAL_GetTick>
1004309c:	6823      	ldr	r3, [r4, #0]
1004309e:	0005      	movs	r5, r0
100430a0:	681b      	ldr	r3, [r3, #0]
100430a2:	071b      	lsls	r3, r3, #28
100430a4:	d51f      	bpl.n	100430e6 <UART_CheckIdleState+0x5a>
100430a6:	2180      	movs	r1, #128	@ 0x80
100430a8:	4b28      	ldr	r3, [pc, #160]	@ (1004314c <UART_CheckIdleState+0xc0>)
100430aa:	0032      	movs	r2, r6
100430ac:	9300      	str	r3, [sp, #0]
100430ae:	0389      	lsls	r1, r1, #14
100430b0:	0003      	movs	r3, r0
100430b2:	0020      	movs	r0, r4
100430b4:	f7ff ffa0 	bl	10042ff8 <UART_WaitOnFlagUntilTimeout>
100430b8:	42b0      	cmp	r0, r6
100430ba:	d014      	beq.n	100430e6 <UART_CheckIdleState+0x5a>
100430bc:	f3ef 8110 	mrs	r1, PRIMASK
100430c0:	2301      	movs	r3, #1
100430c2:	f383 8810 	msr	PRIMASK, r3
100430c6:	2080      	movs	r0, #128	@ 0x80
100430c8:	6822      	ldr	r2, [r4, #0]
100430ca:	6813      	ldr	r3, [r2, #0]
100430cc:	4383      	bics	r3, r0
100430ce:	6013      	str	r3, [r2, #0]
100430d0:	f381 8810 	msr	PRIMASK, r1
100430d4:	0023      	movs	r3, r4
100430d6:	2220      	movs	r2, #32
100430d8:	3388      	adds	r3, #136	@ 0x88
100430da:	601a      	str	r2, [r3, #0]
100430dc:	2003      	movs	r0, #3
100430de:	2300      	movs	r3, #0
100430e0:	3484      	adds	r4, #132	@ 0x84
100430e2:	7023      	strb	r3, [r4, #0]
100430e4:	bd76      	pop	{r1, r2, r4, r5, r6, pc}
100430e6:	0026      	movs	r6, r4
100430e8:	6823      	ldr	r3, [r4, #0]
100430ea:	368c      	adds	r6, #140	@ 0x8c
100430ec:	681b      	ldr	r3, [r3, #0]
100430ee:	075b      	lsls	r3, r3, #29
100430f0:	d523      	bpl.n	1004313a <UART_CheckIdleState+0xae>
100430f2:	2180      	movs	r1, #128	@ 0x80
100430f4:	4b15      	ldr	r3, [pc, #84]	@ (1004314c <UART_CheckIdleState+0xc0>)
100430f6:	2200      	movs	r2, #0
100430f8:	9300      	str	r3, [sp, #0]
100430fa:	0020      	movs	r0, r4
100430fc:	002b      	movs	r3, r5
100430fe:	03c9      	lsls	r1, r1, #15
10043100:	f7ff ff7a 	bl	10042ff8 <UART_WaitOnFlagUntilTimeout>
10043104:	2800      	cmp	r0, #0
10043106:	d018      	beq.n	1004313a <UART_CheckIdleState+0xae>
10043108:	f3ef 8010 	mrs	r0, PRIMASK
1004310c:	2201      	movs	r2, #1
1004310e:	f382 8810 	msr	PRIMASK, r2
10043112:	6821      	ldr	r1, [r4, #0]
10043114:	4d0e      	ldr	r5, [pc, #56]	@ (10043150 <UART_CheckIdleState+0xc4>)
10043116:	680b      	ldr	r3, [r1, #0]
10043118:	402b      	ands	r3, r5
1004311a:	600b      	str	r3, [r1, #0]
1004311c:	f380 8810 	msr	PRIMASK, r0
10043120:	f3ef 8010 	mrs	r0, PRIMASK
10043124:	f382 8810 	msr	PRIMASK, r2
10043128:	6821      	ldr	r1, [r4, #0]
1004312a:	688b      	ldr	r3, [r1, #8]
1004312c:	4393      	bics	r3, r2
1004312e:	608b      	str	r3, [r1, #8]
10043130:	f380 8810 	msr	PRIMASK, r0
10043134:	2320      	movs	r3, #32
10043136:	6033      	str	r3, [r6, #0]
10043138:	e7d0      	b.n	100430dc <UART_CheckIdleState+0x50>
1004313a:	0023      	movs	r3, r4
1004313c:	2220      	movs	r2, #32
1004313e:	2000      	movs	r0, #0
10043140:	3388      	adds	r3, #136	@ 0x88
10043142:	601a      	str	r2, [r3, #0]
10043144:	6032      	str	r2, [r6, #0]
10043146:	66e0      	str	r0, [r4, #108]	@ 0x6c
10043148:	6720      	str	r0, [r4, #112]	@ 0x70
1004314a:	e7c8      	b.n	100430de <UART_CheckIdleState+0x52>
1004314c:	01ffffff 	.word	0x01ffffff
10043150:	fffffedf 	.word	0xfffffedf

10043154 <HAL_UART_Init>:
10043154:	b570      	push	{r4, r5, r6, lr}
10043156:	1e04      	subs	r4, r0, #0
10043158:	d101      	bne.n	1004315e <HAL_UART_Init+0xa>
1004315a:	2001      	movs	r0, #1
1004315c:	bd70      	pop	{r4, r5, r6, pc}
1004315e:	0005      	movs	r5, r0
10043160:	3588      	adds	r5, #136	@ 0x88
10043162:	682b      	ldr	r3, [r5, #0]
10043164:	2b00      	cmp	r3, #0
10043166:	d104      	bne.n	10043172 <HAL_UART_Init+0x1e>
10043168:	0002      	movs	r2, r0
1004316a:	3284      	adds	r2, #132	@ 0x84
1004316c:	7013      	strb	r3, [r2, #0]
1004316e:	f7fd fed3 	bl	10040f18 <HAL_UART_MspInit>
10043172:	2324      	movs	r3, #36	@ 0x24
10043174:	2101      	movs	r1, #1
10043176:	6822      	ldr	r2, [r4, #0]
10043178:	602b      	str	r3, [r5, #0]
1004317a:	6813      	ldr	r3, [r2, #0]
1004317c:	438b      	bics	r3, r1
1004317e:	6013      	str	r3, [r2, #0]
10043180:	6aa3      	ldr	r3, [r4, #40]	@ 0x28
10043182:	2b00      	cmp	r3, #0
10043184:	d002      	beq.n	1004318c <HAL_UART_Init+0x38>
10043186:	0020      	movs	r0, r4
10043188:	f7ff fece 	bl	10042f28 <UART_AdvFeatureConfig>
1004318c:	0020      	movs	r0, r4
1004318e:	f7ff fe2f 	bl	10042df0 <UART_SetConfig>
10043192:	2801      	cmp	r0, #1
10043194:	d0e1      	beq.n	1004315a <HAL_UART_Init+0x6>
10043196:	6823      	ldr	r3, [r4, #0]
10043198:	4907      	ldr	r1, [pc, #28]	@ (100431b8 <HAL_UART_Init+0x64>)
1004319a:	685a      	ldr	r2, [r3, #4]
1004319c:	0020      	movs	r0, r4
1004319e:	400a      	ands	r2, r1
100431a0:	212a      	movs	r1, #42	@ 0x2a
100431a2:	605a      	str	r2, [r3, #4]
100431a4:	689a      	ldr	r2, [r3, #8]
100431a6:	438a      	bics	r2, r1
100431a8:	609a      	str	r2, [r3, #8]
100431aa:	2201      	movs	r2, #1
100431ac:	6819      	ldr	r1, [r3, #0]
100431ae:	430a      	orrs	r2, r1
100431b0:	601a      	str	r2, [r3, #0]
100431b2:	f7ff ff6b 	bl	1004308c <UART_CheckIdleState>
100431b6:	e7d1      	b.n	1004315c <HAL_UART_Init+0x8>
100431b8:	ffffb7ff 	.word	0xffffb7ff

100431bc <UARTEx_SetNbDataToProcess>:
100431bc:	b5f7      	push	{r0, r1, r2, r4, r5, r6, r7, lr}
100431be:	0007      	movs	r7, r0
100431c0:	6e43      	ldr	r3, [r0, #100]	@ 0x64
100431c2:	0004      	movs	r4, r0
100431c4:	376a      	adds	r7, #106	@ 0x6a
100431c6:	2b00      	cmp	r3, #0
100431c8:	d104      	bne.n	100431d4 <UARTEx_SetNbDataToProcess+0x18>
100431ca:	2001      	movs	r0, #1
100431cc:	8038      	strh	r0, [r7, #0]
100431ce:	3468      	adds	r4, #104	@ 0x68
100431d0:	8020      	strh	r0, [r4, #0]
100431d2:	bdf7      	pop	{r0, r1, r2, r4, r5, r6, r7, pc}
100431d4:	6803      	ldr	r3, [r0, #0]
100431d6:	4e0b      	ldr	r6, [pc, #44]	@ (10043204 <UARTEx_SetNbDataToProcess+0x48>)
100431d8:	689a      	ldr	r2, [r3, #8]
100431da:	689b      	ldr	r3, [r3, #8]
100431dc:	4d0a      	ldr	r5, [pc, #40]	@ (10043208 <UARTEx_SetNbDataToProcess+0x4c>)
100431de:	0f5b      	lsrs	r3, r3, #29
100431e0:	5cf0      	ldrb	r0, [r6, r3]
100431e2:	5ce9      	ldrb	r1, [r5, r3]
100431e4:	00c0      	lsls	r0, r0, #3
100431e6:	9201      	str	r2, [sp, #4]
100431e8:	f7fd f832 	bl	10040250 <__divsi3>
100431ec:	9b01      	ldr	r3, [sp, #4]
100431ee:	8038      	strh	r0, [r7, #0]
100431f0:	011b      	lsls	r3, r3, #4
100431f2:	0f5b      	lsrs	r3, r3, #29
100431f4:	5cf0      	ldrb	r0, [r6, r3]
100431f6:	5ce9      	ldrb	r1, [r5, r3]
100431f8:	00c0      	lsls	r0, r0, #3
100431fa:	f7fd f829 	bl	10040250 <__divsi3>
100431fe:	b280      	uxth	r0, r0
10043200:	e7e5      	b.n	100431ce <UARTEx_SetNbDataToProcess+0x12>
10043202:	46c0      	nop			@ (mov r8, r8)
10043204:	10043eee 	.word	0x10043eee
10043208:	10043ee6 	.word	0x10043ee6

1004320c <HAL_UARTEx_WakeupCallback>:
1004320c:	4770      	bx	lr

1004320e <HAL_UARTEx_RxFifoFullCallback>:
1004320e:	4770      	bx	lr

10043210 <HAL_UARTEx_TxFifoEmptyCallback>:
10043210:	4770      	bx	lr

10043212 <HAL_UARTEx_SetTxFifoThreshold>:
10043212:	b5f8      	push	{r3, r4, r5, r6, r7, lr}
10043214:	0005      	movs	r5, r0
10043216:	3584      	adds	r5, #132	@ 0x84
10043218:	000b      	movs	r3, r1
1004321a:	7829      	ldrb	r1, [r5, #0]
1004321c:	2202      	movs	r2, #2
1004321e:	2901      	cmp	r1, #1
10043220:	d015      	beq.n	1004324e <HAL_UARTEx_SetTxFifoThreshold+0x3c>
10043222:	0006      	movs	r6, r0
10043224:	2101      	movs	r1, #1
10043226:	6804      	ldr	r4, [r0, #0]
10043228:	3688      	adds	r6, #136	@ 0x88
1004322a:	3222      	adds	r2, #34	@ 0x22
1004322c:	6032      	str	r2, [r6, #0]
1004322e:	6827      	ldr	r7, [r4, #0]
10043230:	6822      	ldr	r2, [r4, #0]
10043232:	438a      	bics	r2, r1
10043234:	6022      	str	r2, [r4, #0]
10043236:	68a1      	ldr	r1, [r4, #8]
10043238:	00c9      	lsls	r1, r1, #3
1004323a:	08c9      	lsrs	r1, r1, #3
1004323c:	4319      	orrs	r1, r3
1004323e:	60a1      	str	r1, [r4, #8]
10043240:	f7ff ffbc 	bl	100431bc <UARTEx_SetNbDataToProcess>
10043244:	2320      	movs	r3, #32
10043246:	2200      	movs	r2, #0
10043248:	6027      	str	r7, [r4, #0]
1004324a:	6033      	str	r3, [r6, #0]
1004324c:	702a      	strb	r2, [r5, #0]
1004324e:	0010      	movs	r0, r2
10043250:	bdf8      	pop	{r3, r4, r5, r6, r7, pc}
	...

10043254 <HAL_UARTEx_SetRxFifoThreshold>:
10043254:	b5f8      	push	{r3, r4, r5, r6, r7, lr}
10043256:	0005      	movs	r5, r0
10043258:	3584      	adds	r5, #132	@ 0x84
1004325a:	000a      	movs	r2, r1
1004325c:	7829      	ldrb	r1, [r5, #0]
1004325e:	2302      	movs	r3, #2
10043260:	2901      	cmp	r1, #1
10043262:	d015      	beq.n	10043290 <HAL_UARTEx_SetRxFifoThreshold+0x3c>
10043264:	0006      	movs	r6, r0
10043266:	2101      	movs	r1, #1
10043268:	6804      	ldr	r4, [r0, #0]
1004326a:	3688      	adds	r6, #136	@ 0x88
1004326c:	3322      	adds	r3, #34	@ 0x22
1004326e:	6033      	str	r3, [r6, #0]
10043270:	6827      	ldr	r7, [r4, #0]
10043272:	6823      	ldr	r3, [r4, #0]
10043274:	438b      	bics	r3, r1
10043276:	6023      	str	r3, [r4, #0]
10043278:	68a1      	ldr	r1, [r4, #8]
1004327a:	4b06      	ldr	r3, [pc, #24]	@ (10043294 <HAL_UARTEx_SetRxFifoThreshold+0x40>)
1004327c:	4019      	ands	r1, r3
1004327e:	4311      	orrs	r1, r2
10043280:	60a1      	str	r1, [r4, #8]
10043282:	f7ff ff9b 	bl	100431bc <UARTEx_SetNbDataToProcess>
10043286:	2320      	movs	r3, #32
10043288:	6027      	str	r7, [r4, #0]
1004328a:	6033      	str	r3, [r6, #0]
1004328c:	2300      	movs	r3, #0
1004328e:	702b      	strb	r3, [r5, #0]
10043290:	0018      	movs	r0, r3
10043292:	bdf8      	pop	{r3, r4, r5, r6, r7, pc}
10043294:	f1ffffff 	.word	0xf1ffffff

10043298 <USART_EndTransfer>:
10043298:	6803      	ldr	r3, [r0, #0]
1004329a:	4906      	ldr	r1, [pc, #24]	@ (100432b4 <USART_EndTransfer+0x1c>)
1004329c:	681a      	ldr	r2, [r3, #0]
1004329e:	3059      	adds	r0, #89	@ 0x59
100432a0:	400a      	ands	r2, r1
100432a2:	601a      	str	r2, [r3, #0]
100432a4:	689a      	ldr	r2, [r3, #8]
100432a6:	4904      	ldr	r1, [pc, #16]	@ (100432b8 <USART_EndTransfer+0x20>)
100432a8:	400a      	ands	r2, r1
100432aa:	609a      	str	r2, [r3, #8]
100432ac:	2301      	movs	r3, #1
100432ae:	7003      	strb	r3, [r0, #0]
100432b0:	4770      	bx	lr
100432b2:	46c0      	nop			@ (mov r8, r8)
100432b4:	fffffe1f 	.word	0xfffffe1f
100432b8:	ef7ffffe 	.word	0xef7ffffe

100432bc <HAL_USART_TxCpltCallback>:
100432bc:	4770      	bx	lr

100432be <HAL_USART_TxRxCpltCallback>:
100432be:	4770      	bx	lr

100432c0 <HAL_USART_ErrorCallback>:
100432c0:	4770      	bx	lr
	...

100432c4 <HAL_USART_IRQHandler>:
100432c4:	b5f8      	push	{r3, r4, r5, r6, r7, lr}
100432c6:	6803      	ldr	r3, [r0, #0]
100432c8:	4d72      	ldr	r5, [pc, #456]	@ (10043494 <HAL_USART_IRQHandler+0x1d0>)
100432ca:	69da      	ldr	r2, [r3, #28]
100432cc:	0004      	movs	r4, r0
100432ce:	6819      	ldr	r1, [r3, #0]
100432d0:	6898      	ldr	r0, [r3, #8]
100432d2:	422a      	tst	r2, r5
100432d4:	d110      	bne.n	100432f8 <HAL_USART_IRQHandler+0x34>
100432d6:	2520      	movs	r5, #32
100432d8:	422a      	tst	r2, r5
100432da:	d100      	bne.n	100432de <HAL_USART_IRQHandler+0x1a>
100432dc:	e097      	b.n	1004340e <HAL_USART_IRQHandler+0x14a>
100432de:	2680      	movs	r6, #128	@ 0x80
100432e0:	0576      	lsls	r6, r6, #21
100432e2:	400d      	ands	r5, r1
100432e4:	4006      	ands	r6, r0
100432e6:	4335      	orrs	r5, r6
100432e8:	d100      	bne.n	100432ec <HAL_USART_IRQHandler+0x28>
100432ea:	e090      	b.n	1004340e <HAL_USART_IRQHandler+0x14a>
100432ec:	6ca3      	ldr	r3, [r4, #72]	@ 0x48
100432ee:	0020      	movs	r0, r4
100432f0:	2b00      	cmp	r3, #0
100432f2:	d000      	beq.n	100432f6 <HAL_USART_IRQHandler+0x32>
100432f4:	e081      	b.n	100433fa <HAL_USART_IRQHandler+0x136>
100432f6:	e046      	b.n	10043386 <HAL_USART_IRQHandler+0xc2>
100432f8:	2590      	movs	r5, #144	@ 0x90
100432fa:	4f67      	ldr	r7, [pc, #412]	@ (10043498 <HAL_USART_IRQHandler+0x1d4>)
100432fc:	006d      	lsls	r5, r5, #1
100432fe:	4007      	ands	r7, r0
10043300:	400d      	ands	r5, r1
10043302:	433d      	orrs	r5, r7
10043304:	d100      	bne.n	10043308 <HAL_USART_IRQHandler+0x44>
10043306:	e082      	b.n	1004340e <HAL_USART_IRQHandler+0x14a>
10043308:	2501      	movs	r5, #1
1004330a:	422a      	tst	r2, r5
1004330c:	d005      	beq.n	1004331a <HAL_USART_IRQHandler+0x56>
1004330e:	05ce      	lsls	r6, r1, #23
10043310:	d503      	bpl.n	1004331a <HAL_USART_IRQHandler+0x56>
10043312:	621d      	str	r5, [r3, #32]
10043314:	6de6      	ldr	r6, [r4, #92]	@ 0x5c
10043316:	4335      	orrs	r5, r6
10043318:	65e5      	str	r5, [r4, #92]	@ 0x5c
1004331a:	2502      	movs	r5, #2
1004331c:	422a      	tst	r2, r5
1004331e:	d006      	beq.n	1004332e <HAL_USART_IRQHandler+0x6a>
10043320:	07c6      	lsls	r6, r0, #31
10043322:	d504      	bpl.n	1004332e <HAL_USART_IRQHandler+0x6a>
10043324:	621d      	str	r5, [r3, #32]
10043326:	6de6      	ldr	r6, [r4, #92]	@ 0x5c
10043328:	196d      	adds	r5, r5, r5
1004332a:	4335      	orrs	r5, r6
1004332c:	65e5      	str	r5, [r4, #92]	@ 0x5c
1004332e:	2504      	movs	r5, #4
10043330:	422a      	tst	r2, r5
10043332:	d006      	beq.n	10043342 <HAL_USART_IRQHandler+0x7e>
10043334:	07c6      	lsls	r6, r0, #31
10043336:	d504      	bpl.n	10043342 <HAL_USART_IRQHandler+0x7e>
10043338:	621d      	str	r5, [r3, #32]
1004333a:	6de6      	ldr	r6, [r4, #92]	@ 0x5c
1004333c:	3d02      	subs	r5, #2
1004333e:	4335      	orrs	r5, r6
10043340:	65e5      	str	r5, [r4, #92]	@ 0x5c
10043342:	2508      	movs	r5, #8
10043344:	422a      	tst	r2, r5
10043346:	d007      	beq.n	10043358 <HAL_USART_IRQHandler+0x94>
10043348:	2620      	movs	r6, #32
1004334a:	400e      	ands	r6, r1
1004334c:	433e      	orrs	r6, r7
1004334e:	d003      	beq.n	10043358 <HAL_USART_IRQHandler+0x94>
10043350:	621d      	str	r5, [r3, #32]
10043352:	6de6      	ldr	r6, [r4, #92]	@ 0x5c
10043354:	4335      	orrs	r5, r6
10043356:	65e5      	str	r5, [r4, #92]	@ 0x5c
10043358:	2580      	movs	r5, #128	@ 0x80
1004335a:	012d      	lsls	r5, r5, #4
1004335c:	422a      	tst	r2, r5
1004335e:	d006      	beq.n	1004336e <HAL_USART_IRQHandler+0xaa>
10043360:	014e      	lsls	r6, r1, #5
10043362:	d504      	bpl.n	1004336e <HAL_USART_IRQHandler+0xaa>
10043364:	621d      	str	r5, [r3, #32]
10043366:	2580      	movs	r5, #128	@ 0x80
10043368:	6de6      	ldr	r6, [r4, #92]	@ 0x5c
1004336a:	4335      	orrs	r5, r6
1004336c:	65e5      	str	r5, [r4, #92]	@ 0x5c
1004336e:	2580      	movs	r5, #128	@ 0x80
10043370:	01ad      	lsls	r5, r5, #6
10043372:	422a      	tst	r2, r5
10043374:	d00c      	beq.n	10043390 <HAL_USART_IRQHandler+0xcc>
10043376:	07c6      	lsls	r6, r0, #31
10043378:	d50a      	bpl.n	10043390 <HAL_USART_IRQHandler+0xcc>
1004337a:	0026      	movs	r6, r4
1004337c:	3659      	adds	r6, #89	@ 0x59
1004337e:	7836      	ldrb	r6, [r6, #0]
10043380:	621d      	str	r5, [r3, #32]
10043382:	2e22      	cmp	r6, #34	@ 0x22
10043384:	d100      	bne.n	10043388 <HAL_USART_IRQHandler+0xc4>
10043386:	bdf8      	pop	{r3, r4, r5, r6, r7, pc}
10043388:	2320      	movs	r3, #32
1004338a:	6de5      	ldr	r5, [r4, #92]	@ 0x5c
1004338c:	432b      	orrs	r3, r5
1004338e:	65e3      	str	r3, [r4, #92]	@ 0x5c
10043390:	6de3      	ldr	r3, [r4, #92]	@ 0x5c
10043392:	2b00      	cmp	r3, #0
10043394:	d0f7      	beq.n	10043386 <HAL_USART_IRQHandler+0xc2>
10043396:	2320      	movs	r3, #32
10043398:	421a      	tst	r2, r3
1004339a:	d00a      	beq.n	100433b2 <HAL_USART_IRQHandler+0xee>
1004339c:	2280      	movs	r2, #128	@ 0x80
1004339e:	0552      	lsls	r2, r2, #21
100433a0:	400b      	ands	r3, r1
100433a2:	4002      	ands	r2, r0
100433a4:	4313      	orrs	r3, r2
100433a6:	d004      	beq.n	100433b2 <HAL_USART_IRQHandler+0xee>
100433a8:	6ca3      	ldr	r3, [r4, #72]	@ 0x48
100433aa:	2b00      	cmp	r3, #0
100433ac:	d001      	beq.n	100433b2 <HAL_USART_IRQHandler+0xee>
100433ae:	0020      	movs	r0, r4
100433b0:	4798      	blx	r3
100433b2:	2740      	movs	r7, #64	@ 0x40
100433b4:	2208      	movs	r2, #8
100433b6:	6826      	ldr	r6, [r4, #0]
100433b8:	6de3      	ldr	r3, [r4, #92]	@ 0x5c
100433ba:	68b5      	ldr	r5, [r6, #8]
100433bc:	4013      	ands	r3, r2
100433be:	403d      	ands	r5, r7
100433c0:	0020      	movs	r0, r4
100433c2:	431d      	orrs	r5, r3
100433c4:	d01f      	beq.n	10043406 <HAL_USART_IRQHandler+0x142>
100433c6:	f7ff ff67 	bl	10043298 <USART_EndTransfer>
100433ca:	68b3      	ldr	r3, [r6, #8]
100433cc:	423b      	tst	r3, r7
100433ce:	d016      	beq.n	100433fe <HAL_USART_IRQHandler+0x13a>
100433d0:	68b3      	ldr	r3, [r6, #8]
100433d2:	6d20      	ldr	r0, [r4, #80]	@ 0x50
100433d4:	43bb      	bics	r3, r7
100433d6:	60b3      	str	r3, [r6, #8]
100433d8:	2800      	cmp	r0, #0
100433da:	d003      	beq.n	100433e4 <HAL_USART_IRQHandler+0x120>
100433dc:	2300      	movs	r3, #0
100433de:	6383      	str	r3, [r0, #56]	@ 0x38
100433e0:	f7fe f902 	bl	100415e8 <HAL_DMA_Abort_IT>
100433e4:	6d60      	ldr	r0, [r4, #84]	@ 0x54
100433e6:	2800      	cmp	r0, #0
100433e8:	d009      	beq.n	100433fe <HAL_USART_IRQHandler+0x13a>
100433ea:	4b2c      	ldr	r3, [pc, #176]	@ (1004349c <HAL_USART_IRQHandler+0x1d8>)
100433ec:	6383      	str	r3, [r0, #56]	@ 0x38
100433ee:	f7fe f8fb 	bl	100415e8 <HAL_DMA_Abort_IT>
100433f2:	2800      	cmp	r0, #0
100433f4:	d0c7      	beq.n	10043386 <HAL_USART_IRQHandler+0xc2>
100433f6:	6d60      	ldr	r0, [r4, #84]	@ 0x54
100433f8:	6b83      	ldr	r3, [r0, #56]	@ 0x38
100433fa:	4798      	blx	r3
100433fc:	e7c3      	b.n	10043386 <HAL_USART_IRQHandler+0xc2>
100433fe:	0020      	movs	r0, r4
10043400:	f7ff ff5e 	bl	100432c0 <HAL_USART_ErrorCallback>
10043404:	e7bf      	b.n	10043386 <HAL_USART_IRQHandler+0xc2>
10043406:	f7ff ff5b 	bl	100432c0 <HAL_USART_ErrorCallback>
1004340a:	65e5      	str	r5, [r4, #92]	@ 0x5c
1004340c:	e7bb      	b.n	10043386 <HAL_USART_IRQHandler+0xc2>
1004340e:	2580      	movs	r5, #128	@ 0x80
10043410:	422a      	tst	r2, r5
10043412:	d007      	beq.n	10043424 <HAL_USART_IRQHandler+0x160>
10043414:	2680      	movs	r6, #128	@ 0x80
10043416:	0436      	lsls	r6, r6, #16
10043418:	400d      	ands	r5, r1
1004341a:	4030      	ands	r0, r6
1004341c:	4305      	orrs	r5, r0
1004341e:	d001      	beq.n	10043424 <HAL_USART_IRQHandler+0x160>
10043420:	6ce3      	ldr	r3, [r4, #76]	@ 0x4c
10043422:	e764      	b.n	100432ee <HAL_USART_IRQHandler+0x2a>
10043424:	2040      	movs	r0, #64	@ 0x40
10043426:	4202      	tst	r2, r0
10043428:	d022      	beq.n	10043470 <HAL_USART_IRQHandler+0x1ac>
1004342a:	4201      	tst	r1, r0
1004342c:	d020      	beq.n	10043470 <HAL_USART_IRQHandler+0x1ac>
1004342e:	681a      	ldr	r2, [r3, #0]
10043430:	0021      	movs	r1, r4
10043432:	4382      	bics	r2, r0
10043434:	601a      	str	r2, [r3, #0]
10043436:	689a      	ldr	r2, [r3, #8]
10043438:	383f      	subs	r0, #63	@ 0x3f
1004343a:	4382      	bics	r2, r0
1004343c:	609a      	str	r2, [r3, #8]
1004343e:	2200      	movs	r2, #0
10043440:	3159      	adds	r1, #89	@ 0x59
10043442:	64e2      	str	r2, [r4, #76]	@ 0x4c
10043444:	780a      	ldrb	r2, [r1, #0]
10043446:	2a12      	cmp	r2, #18
10043448:	d109      	bne.n	1004345e <HAL_USART_IRQHandler+0x19a>
1004344a:	3a0a      	subs	r2, #10
1004344c:	621a      	str	r2, [r3, #32]
1004344e:	699d      	ldr	r5, [r3, #24]
10043450:	432a      	orrs	r2, r5
10043452:	619a      	str	r2, [r3, #24]
10043454:	7008      	strb	r0, [r1, #0]
10043456:	0020      	movs	r0, r4
10043458:	f7ff ff30 	bl	100432bc <HAL_USART_TxCpltCallback>
1004345c:	e793      	b.n	10043386 <HAL_USART_IRQHandler+0xc2>
1004345e:	8ee3      	ldrh	r3, [r4, #54]	@ 0x36
10043460:	2b00      	cmp	r3, #0
10043462:	d000      	beq.n	10043466 <HAL_USART_IRQHandler+0x1a2>
10043464:	e78f      	b.n	10043386 <HAL_USART_IRQHandler+0xc2>
10043466:	7008      	strb	r0, [r1, #0]
10043468:	0020      	movs	r0, r4
1004346a:	f7ff ff28 	bl	100432be <HAL_USART_TxRxCpltCallback>
1004346e:	e78a      	b.n	10043386 <HAL_USART_IRQHandler+0xc2>
10043470:	0213      	lsls	r3, r2, #8
10043472:	d505      	bpl.n	10043480 <HAL_USART_IRQHandler+0x1bc>
10043474:	004b      	lsls	r3, r1, #1
10043476:	d503      	bpl.n	10043480 <HAL_USART_IRQHandler+0x1bc>
10043478:	0020      	movs	r0, r4
1004347a:	f000 f81a 	bl	100434b2 <HAL_USARTEx_TxFifoEmptyCallback>
1004347e:	e782      	b.n	10043386 <HAL_USART_IRQHandler+0xc2>
10043480:	01d2      	lsls	r2, r2, #7
10043482:	d400      	bmi.n	10043486 <HAL_USART_IRQHandler+0x1c2>
10043484:	e77f      	b.n	10043386 <HAL_USART_IRQHandler+0xc2>
10043486:	2900      	cmp	r1, #0
10043488:	db00      	blt.n	1004348c <HAL_USART_IRQHandler+0x1c8>
1004348a:	e77c      	b.n	10043386 <HAL_USART_IRQHandler+0xc2>
1004348c:	0020      	movs	r0, r4
1004348e:	f000 f80f 	bl	100434b0 <HAL_USARTEx_RxFifoFullCallback>
10043492:	e778      	b.n	10043386 <HAL_USART_IRQHandler+0xc2>
10043494:	0000280f 	.word	0x0000280f
10043498:	10000001 	.word	0x10000001
1004349c:	100434a1 	.word	0x100434a1

100434a0 <USART_DMAAbortOnError>:
100434a0:	2300      	movs	r3, #0
100434a2:	b510      	push	{r4, lr}
100434a4:	6a80      	ldr	r0, [r0, #40]	@ 0x28
100434a6:	86c3      	strh	r3, [r0, #54]	@ 0x36
100434a8:	85c3      	strh	r3, [r0, #46]	@ 0x2e
100434aa:	f7ff ff09 	bl	100432c0 <HAL_USART_ErrorCallback>
100434ae:	bd10      	pop	{r4, pc}

100434b0 <HAL_USARTEx_RxFifoFullCallback>:
100434b0:	4770      	bx	lr

100434b2 <HAL_USARTEx_TxFifoEmptyCallback>:
100434b2:	4770      	bx	lr

100434b4 <malloc>:
100434b4:	b510      	push	{r4, lr}
100434b6:	4b03      	ldr	r3, [pc, #12]	@ (100434c4 <malloc+0x10>)
100434b8:	0001      	movs	r1, r0
100434ba:	6818      	ldr	r0, [r3, #0]
100434bc:	f000 f830 	bl	10043520 <_malloc_r>
100434c0:	bd10      	pop	{r4, pc}
100434c2:	46c0      	nop			@ (mov r8, r8)
100434c4:	20000a0c 	.word	0x20000a0c

100434c8 <free>:
100434c8:	b510      	push	{r4, lr}
100434ca:	4b03      	ldr	r3, [pc, #12]	@ (100434d8 <free+0x10>)
100434cc:	0001      	movs	r1, r0
100434ce:	6818      	ldr	r0, [r3, #0]
100434d0:	f000 f902 	bl	100436d8 <_free_r>
100434d4:	bd10      	pop	{r4, pc}
100434d6:	46c0      	nop			@ (mov r8, r8)
100434d8:	20000a0c 	.word	0x20000a0c

100434dc <sbrk_aligned>:
100434dc:	b570      	push	{r4, r5, r6, lr}
100434de:	4e0f      	ldr	r6, [pc, #60]	@ (1004351c <sbrk_aligned+0x40>)
100434e0:	000d      	movs	r5, r1
100434e2:	6831      	ldr	r1, [r6, #0]
100434e4:	0004      	movs	r4, r0
100434e6:	2900      	cmp	r1, #0
100434e8:	d102      	bne.n	100434f0 <sbrk_aligned+0x14>
100434ea:	f000 f8d1 	bl	10043690 <_sbrk_r>
100434ee:	6030      	str	r0, [r6, #0]
100434f0:	0029      	movs	r1, r5
100434f2:	0020      	movs	r0, r4
100434f4:	f000 f8cc 	bl	10043690 <_sbrk_r>
100434f8:	1c43      	adds	r3, r0, #1
100434fa:	d103      	bne.n	10043504 <sbrk_aligned+0x28>
100434fc:	2501      	movs	r5, #1
100434fe:	426d      	negs	r5, r5
10043500:	0028      	movs	r0, r5
10043502:	bd70      	pop	{r4, r5, r6, pc}
10043504:	2303      	movs	r3, #3
10043506:	1cc5      	adds	r5, r0, #3
10043508:	439d      	bics	r5, r3
1004350a:	42a8      	cmp	r0, r5
1004350c:	d0f8      	beq.n	10043500 <sbrk_aligned+0x24>
1004350e:	1a29      	subs	r1, r5, r0
10043510:	0020      	movs	r0, r4
10043512:	f000 f8bd 	bl	10043690 <_sbrk_r>
10043516:	3001      	adds	r0, #1
10043518:	d1f2      	bne.n	10043500 <sbrk_aligned+0x24>
1004351a:	e7ef      	b.n	100434fc <sbrk_aligned+0x20>
1004351c:	200008a0 	.word	0x200008a0

10043520 <_malloc_r>:
10043520:	b5f7      	push	{r0, r1, r2, r4, r5, r6, r7, lr}
10043522:	2203      	movs	r2, #3
10043524:	1ccb      	adds	r3, r1, #3
10043526:	4393      	bics	r3, r2
10043528:	3308      	adds	r3, #8
1004352a:	0005      	movs	r5, r0
1004352c:	001f      	movs	r7, r3
1004352e:	2b0c      	cmp	r3, #12
10043530:	d234      	bcs.n	1004359c <_malloc_r+0x7c>
10043532:	270c      	movs	r7, #12
10043534:	42b9      	cmp	r1, r7
10043536:	d833      	bhi.n	100435a0 <_malloc_r+0x80>
10043538:	0028      	movs	r0, r5
1004353a:	f000 f871 	bl	10043620 <__malloc_lock>
1004353e:	4e37      	ldr	r6, [pc, #220]	@ (1004361c <_malloc_r+0xfc>)
10043540:	6833      	ldr	r3, [r6, #0]
10043542:	001c      	movs	r4, r3
10043544:	2c00      	cmp	r4, #0
10043546:	d12f      	bne.n	100435a8 <_malloc_r+0x88>
10043548:	0039      	movs	r1, r7
1004354a:	0028      	movs	r0, r5
1004354c:	f7ff ffc6 	bl	100434dc <sbrk_aligned>
10043550:	0004      	movs	r4, r0
10043552:	1c43      	adds	r3, r0, #1
10043554:	d15f      	bne.n	10043616 <_malloc_r+0xf6>
10043556:	6834      	ldr	r4, [r6, #0]
10043558:	9400      	str	r4, [sp, #0]
1004355a:	9b00      	ldr	r3, [sp, #0]
1004355c:	2b00      	cmp	r3, #0
1004355e:	d14a      	bne.n	100435f6 <_malloc_r+0xd6>
10043560:	2c00      	cmp	r4, #0
10043562:	d052      	beq.n	1004360a <_malloc_r+0xea>
10043564:	6823      	ldr	r3, [r4, #0]
10043566:	0028      	movs	r0, r5
10043568:	18e3      	adds	r3, r4, r3
1004356a:	9900      	ldr	r1, [sp, #0]
1004356c:	9301      	str	r3, [sp, #4]
1004356e:	f000 f88f 	bl	10043690 <_sbrk_r>
10043572:	9b01      	ldr	r3, [sp, #4]
10043574:	4283      	cmp	r3, r0
10043576:	d148      	bne.n	1004360a <_malloc_r+0xea>
10043578:	6823      	ldr	r3, [r4, #0]
1004357a:	0028      	movs	r0, r5
1004357c:	1aff      	subs	r7, r7, r3
1004357e:	0039      	movs	r1, r7
10043580:	f7ff ffac 	bl	100434dc <sbrk_aligned>
10043584:	3001      	adds	r0, #1
10043586:	d040      	beq.n	1004360a <_malloc_r+0xea>
10043588:	6823      	ldr	r3, [r4, #0]
1004358a:	19db      	adds	r3, r3, r7
1004358c:	6023      	str	r3, [r4, #0]
1004358e:	6833      	ldr	r3, [r6, #0]
10043590:	685a      	ldr	r2, [r3, #4]
10043592:	2a00      	cmp	r2, #0
10043594:	d133      	bne.n	100435fe <_malloc_r+0xde>
10043596:	9b00      	ldr	r3, [sp, #0]
10043598:	6033      	str	r3, [r6, #0]
1004359a:	e019      	b.n	100435d0 <_malloc_r+0xb0>
1004359c:	2b00      	cmp	r3, #0
1004359e:	dac9      	bge.n	10043534 <_malloc_r+0x14>
100435a0:	230c      	movs	r3, #12
100435a2:	602b      	str	r3, [r5, #0]
100435a4:	2000      	movs	r0, #0
100435a6:	bdfe      	pop	{r1, r2, r3, r4, r5, r6, r7, pc}
100435a8:	6821      	ldr	r1, [r4, #0]
100435aa:	1bc9      	subs	r1, r1, r7
100435ac:	d420      	bmi.n	100435f0 <_malloc_r+0xd0>
100435ae:	290b      	cmp	r1, #11
100435b0:	d90a      	bls.n	100435c8 <_malloc_r+0xa8>
100435b2:	19e2      	adds	r2, r4, r7
100435b4:	6027      	str	r7, [r4, #0]
100435b6:	42a3      	cmp	r3, r4
100435b8:	d104      	bne.n	100435c4 <_malloc_r+0xa4>
100435ba:	6032      	str	r2, [r6, #0]
100435bc:	6863      	ldr	r3, [r4, #4]
100435be:	6011      	str	r1, [r2, #0]
100435c0:	6053      	str	r3, [r2, #4]
100435c2:	e005      	b.n	100435d0 <_malloc_r+0xb0>
100435c4:	605a      	str	r2, [r3, #4]
100435c6:	e7f9      	b.n	100435bc <_malloc_r+0x9c>
100435c8:	6862      	ldr	r2, [r4, #4]
100435ca:	42a3      	cmp	r3, r4
100435cc:	d10e      	bne.n	100435ec <_malloc_r+0xcc>
100435ce:	6032      	str	r2, [r6, #0]
100435d0:	0028      	movs	r0, r5
100435d2:	f000 f82d 	bl	10043630 <__malloc_unlock>
100435d6:	0020      	movs	r0, r4
100435d8:	2207      	movs	r2, #7
100435da:	300b      	adds	r0, #11
100435dc:	1d23      	adds	r3, r4, #4
100435de:	4390      	bics	r0, r2
100435e0:	1ac2      	subs	r2, r0, r3
100435e2:	4298      	cmp	r0, r3
100435e4:	d0df      	beq.n	100435a6 <_malloc_r+0x86>
100435e6:	1a1b      	subs	r3, r3, r0
100435e8:	50a3      	str	r3, [r4, r2]
100435ea:	e7dc      	b.n	100435a6 <_malloc_r+0x86>
100435ec:	605a      	str	r2, [r3, #4]
100435ee:	e7ef      	b.n	100435d0 <_malloc_r+0xb0>
100435f0:	0023      	movs	r3, r4
100435f2:	6864      	ldr	r4, [r4, #4]
100435f4:	e7a6      	b.n	10043544 <_malloc_r+0x24>
100435f6:	9c00      	ldr	r4, [sp, #0]
100435f8:	6863      	ldr	r3, [r4, #4]
100435fa:	9300      	str	r3, [sp, #0]
100435fc:	e7ad      	b.n	1004355a <_malloc_r+0x3a>
100435fe:	001a      	movs	r2, r3
10043600:	685b      	ldr	r3, [r3, #4]
10043602:	42a3      	cmp	r3, r4
10043604:	d1fb      	bne.n	100435fe <_malloc_r+0xde>
10043606:	2300      	movs	r3, #0
10043608:	e7da      	b.n	100435c0 <_malloc_r+0xa0>
1004360a:	230c      	movs	r3, #12
1004360c:	0028      	movs	r0, r5
1004360e:	602b      	str	r3, [r5, #0]
10043610:	f000 f80e 	bl	10043630 <__malloc_unlock>
10043614:	e7c6      	b.n	100435a4 <_malloc_r+0x84>
10043616:	6007      	str	r7, [r0, #0]
10043618:	e7da      	b.n	100435d0 <_malloc_r+0xb0>
1004361a:	46c0      	nop			@ (mov r8, r8)
1004361c:	200008a4 	.word	0x200008a4

10043620 <__malloc_lock>:
10043620:	b510      	push	{r4, lr}
10043622:	4802      	ldr	r0, [pc, #8]	@ (1004362c <__malloc_lock+0xc>)
10043624:	f000 f84c 	bl	100436c0 <__retarget_lock_acquire_recursive>
10043628:	bd10      	pop	{r4, pc}
1004362a:	46c0      	nop			@ (mov r8, r8)
1004362c:	200009e4 	.word	0x200009e4

10043630 <__malloc_unlock>:
10043630:	b510      	push	{r4, lr}
10043632:	4802      	ldr	r0, [pc, #8]	@ (1004363c <__malloc_unlock+0xc>)
10043634:	f000 f845 	bl	100436c2 <__retarget_lock_release_recursive>
10043638:	bd10      	pop	{r4, pc}
1004363a:	46c0      	nop			@ (mov r8, r8)
1004363c:	200009e4 	.word	0x200009e4

10043640 <siprintf>:
10043640:	b40e      	push	{r1, r2, r3}
10043642:	b500      	push	{lr}
10043644:	490b      	ldr	r1, [pc, #44]	@ (10043674 <siprintf+0x34>)
10043646:	b09c      	sub	sp, #112	@ 0x70
10043648:	ab1d      	add	r3, sp, #116	@ 0x74
1004364a:	9002      	str	r0, [sp, #8]
1004364c:	9006      	str	r0, [sp, #24]
1004364e:	9107      	str	r1, [sp, #28]
10043650:	9104      	str	r1, [sp, #16]
10043652:	4809      	ldr	r0, [pc, #36]	@ (10043678 <siprintf+0x38>)
10043654:	4909      	ldr	r1, [pc, #36]	@ (1004367c <siprintf+0x3c>)
10043656:	cb04      	ldmia	r3!, {r2}
10043658:	9105      	str	r1, [sp, #20]
1004365a:	6800      	ldr	r0, [r0, #0]
1004365c:	a902      	add	r1, sp, #8
1004365e:	9301      	str	r3, [sp, #4]
10043660:	f000 f8e4 	bl	1004382c <_svfiprintf_r>
10043664:	2200      	movs	r2, #0
10043666:	9b02      	ldr	r3, [sp, #8]
10043668:	701a      	strb	r2, [r3, #0]
1004366a:	b01c      	add	sp, #112	@ 0x70
1004366c:	bc08      	pop	{r3}
1004366e:	b003      	add	sp, #12
10043670:	4718      	bx	r3
10043672:	46c0      	nop			@ (mov r8, r8)
10043674:	7fffffff 	.word	0x7fffffff
10043678:	20000a0c 	.word	0x20000a0c
1004367c:	ffff0208 	.word	0xffff0208

10043680 <memset>:
10043680:	0003      	movs	r3, r0
10043682:	1882      	adds	r2, r0, r2
10043684:	4293      	cmp	r3, r2
10043686:	d100      	bne.n	1004368a <memset+0xa>
10043688:	4770      	bx	lr
1004368a:	7019      	strb	r1, [r3, #0]
1004368c:	3301      	adds	r3, #1
1004368e:	e7f9      	b.n	10043684 <memset+0x4>

10043690 <_sbrk_r>:
10043690:	2300      	movs	r3, #0
10043692:	b570      	push	{r4, r5, r6, lr}
10043694:	4d06      	ldr	r5, [pc, #24]	@ (100436b0 <_sbrk_r+0x20>)
10043696:	0004      	movs	r4, r0
10043698:	0008      	movs	r0, r1
1004369a:	602b      	str	r3, [r5, #0]
1004369c:	f7fd fca6 	bl	10040fec <_sbrk>
100436a0:	1c43      	adds	r3, r0, #1
100436a2:	d103      	bne.n	100436ac <_sbrk_r+0x1c>
100436a4:	682b      	ldr	r3, [r5, #0]
100436a6:	2b00      	cmp	r3, #0
100436a8:	d000      	beq.n	100436ac <_sbrk_r+0x1c>
100436aa:	6023      	str	r3, [r4, #0]
100436ac:	bd70      	pop	{r4, r5, r6, pc}
100436ae:	46c0      	nop			@ (mov r8, r8)
100436b0:	200009e0 	.word	0x200009e0

100436b4 <__errno>:
100436b4:	4b01      	ldr	r3, [pc, #4]	@ (100436bc <__errno+0x8>)
100436b6:	6818      	ldr	r0, [r3, #0]
100436b8:	4770      	bx	lr
100436ba:	46c0      	nop			@ (mov r8, r8)
100436bc:	20000a0c 	.word	0x20000a0c

100436c0 <__retarget_lock_acquire_recursive>:
100436c0:	4770      	bx	lr

100436c2 <__retarget_lock_release_recursive>:
100436c2:	4770      	bx	lr

100436c4 <memcpy>:
100436c4:	2300      	movs	r3, #0
100436c6:	b510      	push	{r4, lr}
100436c8:	429a      	cmp	r2, r3
100436ca:	d100      	bne.n	100436ce <memcpy+0xa>
100436cc:	bd10      	pop	{r4, pc}
100436ce:	5ccc      	ldrb	r4, [r1, r3]
100436d0:	54c4      	strb	r4, [r0, r3]
100436d2:	3301      	adds	r3, #1
100436d4:	e7f8      	b.n	100436c8 <memcpy+0x4>
	...

100436d8 <_free_r>:
100436d8:	b570      	push	{r4, r5, r6, lr}
100436da:	0005      	movs	r5, r0
100436dc:	1e0c      	subs	r4, r1, #0
100436de:	d010      	beq.n	10043702 <_free_r+0x2a>
100436e0:	3c04      	subs	r4, #4
100436e2:	6823      	ldr	r3, [r4, #0]
100436e4:	2b00      	cmp	r3, #0
100436e6:	da00      	bge.n	100436ea <_free_r+0x12>
100436e8:	18e4      	adds	r4, r4, r3
100436ea:	0028      	movs	r0, r5
100436ec:	f7ff ff98 	bl	10043620 <__malloc_lock>
100436f0:	4a1d      	ldr	r2, [pc, #116]	@ (10043768 <_free_r+0x90>)
100436f2:	6813      	ldr	r3, [r2, #0]
100436f4:	2b00      	cmp	r3, #0
100436f6:	d105      	bne.n	10043704 <_free_r+0x2c>
100436f8:	6063      	str	r3, [r4, #4]
100436fa:	6014      	str	r4, [r2, #0]
100436fc:	0028      	movs	r0, r5
100436fe:	f7ff ff97 	bl	10043630 <__malloc_unlock>
10043702:	bd70      	pop	{r4, r5, r6, pc}
10043704:	42a3      	cmp	r3, r4
10043706:	d908      	bls.n	1004371a <_free_r+0x42>
10043708:	6820      	ldr	r0, [r4, #0]
1004370a:	1821      	adds	r1, r4, r0
1004370c:	428b      	cmp	r3, r1
1004370e:	d1f3      	bne.n	100436f8 <_free_r+0x20>
10043710:	6819      	ldr	r1, [r3, #0]
10043712:	685b      	ldr	r3, [r3, #4]
10043714:	1809      	adds	r1, r1, r0
10043716:	6021      	str	r1, [r4, #0]
10043718:	e7ee      	b.n	100436f8 <_free_r+0x20>
1004371a:	001a      	movs	r2, r3
1004371c:	685b      	ldr	r3, [r3, #4]
1004371e:	2b00      	cmp	r3, #0
10043720:	d001      	beq.n	10043726 <_free_r+0x4e>
10043722:	42a3      	cmp	r3, r4
10043724:	d9f9      	bls.n	1004371a <_free_r+0x42>
10043726:	6811      	ldr	r1, [r2, #0]
10043728:	1850      	adds	r0, r2, r1
1004372a:	42a0      	cmp	r0, r4
1004372c:	d10b      	bne.n	10043746 <_free_r+0x6e>
1004372e:	6820      	ldr	r0, [r4, #0]
10043730:	1809      	adds	r1, r1, r0
10043732:	1850      	adds	r0, r2, r1
10043734:	6011      	str	r1, [r2, #0]
10043736:	4283      	cmp	r3, r0
10043738:	d1e0      	bne.n	100436fc <_free_r+0x24>
1004373a:	6818      	ldr	r0, [r3, #0]
1004373c:	685b      	ldr	r3, [r3, #4]
1004373e:	1841      	adds	r1, r0, r1
10043740:	6011      	str	r1, [r2, #0]
10043742:	6053      	str	r3, [r2, #4]
10043744:	e7da      	b.n	100436fc <_free_r+0x24>
10043746:	42a0      	cmp	r0, r4
10043748:	d902      	bls.n	10043750 <_free_r+0x78>
1004374a:	230c      	movs	r3, #12
1004374c:	602b      	str	r3, [r5, #0]
1004374e:	e7d5      	b.n	100436fc <_free_r+0x24>
10043750:	6820      	ldr	r0, [r4, #0]
10043752:	1821      	adds	r1, r4, r0
10043754:	428b      	cmp	r3, r1
10043756:	d103      	bne.n	10043760 <_free_r+0x88>
10043758:	6819      	ldr	r1, [r3, #0]
1004375a:	685b      	ldr	r3, [r3, #4]
1004375c:	1809      	adds	r1, r1, r0
1004375e:	6021      	str	r1, [r4, #0]
10043760:	6063      	str	r3, [r4, #4]
10043762:	6054      	str	r4, [r2, #4]
10043764:	e7ca      	b.n	100436fc <_free_r+0x24>
10043766:	46c0      	nop			@ (mov r8, r8)
10043768:	200008a4 	.word	0x200008a4

1004376c <__ssputs_r>:
1004376c:	b5f0      	push	{r4, r5, r6, r7, lr}
1004376e:	688e      	ldr	r6, [r1, #8]
10043770:	b085      	sub	sp, #20
10043772:	001f      	movs	r7, r3
10043774:	000c      	movs	r4, r1
10043776:	680b      	ldr	r3, [r1, #0]
10043778:	9002      	str	r0, [sp, #8]
1004377a:	9203      	str	r2, [sp, #12]
1004377c:	42be      	cmp	r6, r7
1004377e:	d830      	bhi.n	100437e2 <__ssputs_r+0x76>
10043780:	210c      	movs	r1, #12
10043782:	5e62      	ldrsh	r2, [r4, r1]
10043784:	2190      	movs	r1, #144	@ 0x90
10043786:	00c9      	lsls	r1, r1, #3
10043788:	420a      	tst	r2, r1
1004378a:	d028      	beq.n	100437de <__ssputs_r+0x72>
1004378c:	2003      	movs	r0, #3
1004378e:	6921      	ldr	r1, [r4, #16]
10043790:	1a5b      	subs	r3, r3, r1
10043792:	9301      	str	r3, [sp, #4]
10043794:	6963      	ldr	r3, [r4, #20]
10043796:	4343      	muls	r3, r0
10043798:	9801      	ldr	r0, [sp, #4]
1004379a:	0fdd      	lsrs	r5, r3, #31
1004379c:	18ed      	adds	r5, r5, r3
1004379e:	1c7b      	adds	r3, r7, #1
100437a0:	181b      	adds	r3, r3, r0
100437a2:	106d      	asrs	r5, r5, #1
100437a4:	42ab      	cmp	r3, r5
100437a6:	d900      	bls.n	100437aa <__ssputs_r+0x3e>
100437a8:	001d      	movs	r5, r3
100437aa:	0552      	lsls	r2, r2, #21
100437ac:	d528      	bpl.n	10043800 <__ssputs_r+0x94>
100437ae:	0029      	movs	r1, r5
100437b0:	9802      	ldr	r0, [sp, #8]
100437b2:	f7ff feb5 	bl	10043520 <_malloc_r>
100437b6:	1e06      	subs	r6, r0, #0
100437b8:	d02c      	beq.n	10043814 <__ssputs_r+0xa8>
100437ba:	9a01      	ldr	r2, [sp, #4]
100437bc:	6921      	ldr	r1, [r4, #16]
100437be:	f7ff ff81 	bl	100436c4 <memcpy>
100437c2:	89a2      	ldrh	r2, [r4, #12]
100437c4:	4b18      	ldr	r3, [pc, #96]	@ (10043828 <__ssputs_r+0xbc>)
100437c6:	401a      	ands	r2, r3
100437c8:	2380      	movs	r3, #128	@ 0x80
100437ca:	4313      	orrs	r3, r2
100437cc:	81a3      	strh	r3, [r4, #12]
100437ce:	9b01      	ldr	r3, [sp, #4]
100437d0:	6126      	str	r6, [r4, #16]
100437d2:	18f6      	adds	r6, r6, r3
100437d4:	6026      	str	r6, [r4, #0]
100437d6:	003e      	movs	r6, r7
100437d8:	6165      	str	r5, [r4, #20]
100437da:	1aed      	subs	r5, r5, r3
100437dc:	60a5      	str	r5, [r4, #8]
100437de:	42be      	cmp	r6, r7
100437e0:	d900      	bls.n	100437e4 <__ssputs_r+0x78>
100437e2:	003e      	movs	r6, r7
100437e4:	0032      	movs	r2, r6
100437e6:	9903      	ldr	r1, [sp, #12]
100437e8:	6820      	ldr	r0, [r4, #0]
100437ea:	f000 fa9b 	bl	10043d24 <memmove>
100437ee:	2000      	movs	r0, #0
100437f0:	68a3      	ldr	r3, [r4, #8]
100437f2:	1b9b      	subs	r3, r3, r6
100437f4:	60a3      	str	r3, [r4, #8]
100437f6:	6823      	ldr	r3, [r4, #0]
100437f8:	199b      	adds	r3, r3, r6
100437fa:	6023      	str	r3, [r4, #0]
100437fc:	b005      	add	sp, #20
100437fe:	bdf0      	pop	{r4, r5, r6, r7, pc}
10043800:	002a      	movs	r2, r5
10043802:	9802      	ldr	r0, [sp, #8]
10043804:	f000 faac 	bl	10043d60 <_realloc_r>
10043808:	1e06      	subs	r6, r0, #0
1004380a:	d1e0      	bne.n	100437ce <__ssputs_r+0x62>
1004380c:	6921      	ldr	r1, [r4, #16]
1004380e:	9802      	ldr	r0, [sp, #8]
10043810:	f7ff ff62 	bl	100436d8 <_free_r>
10043814:	230c      	movs	r3, #12
10043816:	2001      	movs	r0, #1
10043818:	9a02      	ldr	r2, [sp, #8]
1004381a:	4240      	negs	r0, r0
1004381c:	6013      	str	r3, [r2, #0]
1004381e:	89a2      	ldrh	r2, [r4, #12]
10043820:	3334      	adds	r3, #52	@ 0x34
10043822:	4313      	orrs	r3, r2
10043824:	81a3      	strh	r3, [r4, #12]
10043826:	e7e9      	b.n	100437fc <__ssputs_r+0x90>
10043828:	fffffb7f 	.word	0xfffffb7f

1004382c <_svfiprintf_r>:
1004382c:	b5f0      	push	{r4, r5, r6, r7, lr}
1004382e:	b0a1      	sub	sp, #132	@ 0x84
10043830:	9003      	str	r0, [sp, #12]
10043832:	001d      	movs	r5, r3
10043834:	898b      	ldrh	r3, [r1, #12]
10043836:	000f      	movs	r7, r1
10043838:	0016      	movs	r6, r2
1004383a:	061b      	lsls	r3, r3, #24
1004383c:	d511      	bpl.n	10043862 <_svfiprintf_r+0x36>
1004383e:	690b      	ldr	r3, [r1, #16]
10043840:	2b00      	cmp	r3, #0
10043842:	d10e      	bne.n	10043862 <_svfiprintf_r+0x36>
10043844:	2140      	movs	r1, #64	@ 0x40
10043846:	f7ff fe6b 	bl	10043520 <_malloc_r>
1004384a:	6038      	str	r0, [r7, #0]
1004384c:	6138      	str	r0, [r7, #16]
1004384e:	2800      	cmp	r0, #0
10043850:	d105      	bne.n	1004385e <_svfiprintf_r+0x32>
10043852:	230c      	movs	r3, #12
10043854:	9a03      	ldr	r2, [sp, #12]
10043856:	6013      	str	r3, [r2, #0]
10043858:	2001      	movs	r0, #1
1004385a:	4240      	negs	r0, r0
1004385c:	e0cf      	b.n	100439fe <_svfiprintf_r+0x1d2>
1004385e:	2340      	movs	r3, #64	@ 0x40
10043860:	617b      	str	r3, [r7, #20]
10043862:	2300      	movs	r3, #0
10043864:	ac08      	add	r4, sp, #32
10043866:	6163      	str	r3, [r4, #20]
10043868:	3320      	adds	r3, #32
1004386a:	7663      	strb	r3, [r4, #25]
1004386c:	3310      	adds	r3, #16
1004386e:	76a3      	strb	r3, [r4, #26]
10043870:	9507      	str	r5, [sp, #28]
10043872:	0035      	movs	r5, r6
10043874:	782b      	ldrb	r3, [r5, #0]
10043876:	2b00      	cmp	r3, #0
10043878:	d001      	beq.n	1004387e <_svfiprintf_r+0x52>
1004387a:	2b25      	cmp	r3, #37	@ 0x25
1004387c:	d148      	bne.n	10043910 <_svfiprintf_r+0xe4>
1004387e:	1bab      	subs	r3, r5, r6
10043880:	9305      	str	r3, [sp, #20]
10043882:	42b5      	cmp	r5, r6
10043884:	d00b      	beq.n	1004389e <_svfiprintf_r+0x72>
10043886:	0032      	movs	r2, r6
10043888:	0039      	movs	r1, r7
1004388a:	9803      	ldr	r0, [sp, #12]
1004388c:	f7ff ff6e 	bl	1004376c <__ssputs_r>
10043890:	3001      	adds	r0, #1
10043892:	d100      	bne.n	10043896 <_svfiprintf_r+0x6a>
10043894:	e0ae      	b.n	100439f4 <_svfiprintf_r+0x1c8>
10043896:	6963      	ldr	r3, [r4, #20]
10043898:	9a05      	ldr	r2, [sp, #20]
1004389a:	189b      	adds	r3, r3, r2
1004389c:	6163      	str	r3, [r4, #20]
1004389e:	782b      	ldrb	r3, [r5, #0]
100438a0:	2b00      	cmp	r3, #0
100438a2:	d100      	bne.n	100438a6 <_svfiprintf_r+0x7a>
100438a4:	e0a6      	b.n	100439f4 <_svfiprintf_r+0x1c8>
100438a6:	2201      	movs	r2, #1
100438a8:	2300      	movs	r3, #0
100438aa:	4252      	negs	r2, r2
100438ac:	6062      	str	r2, [r4, #4]
100438ae:	a904      	add	r1, sp, #16
100438b0:	3254      	adds	r2, #84	@ 0x54
100438b2:	1852      	adds	r2, r2, r1
100438b4:	1c6e      	adds	r6, r5, #1
100438b6:	6023      	str	r3, [r4, #0]
100438b8:	60e3      	str	r3, [r4, #12]
100438ba:	60a3      	str	r3, [r4, #8]
100438bc:	7013      	strb	r3, [r2, #0]
100438be:	65a3      	str	r3, [r4, #88]	@ 0x58
100438c0:	4b54      	ldr	r3, [pc, #336]	@ (10043a14 <_svfiprintf_r+0x1e8>)
100438c2:	2205      	movs	r2, #5
100438c4:	0018      	movs	r0, r3
100438c6:	7831      	ldrb	r1, [r6, #0]
100438c8:	9305      	str	r3, [sp, #20]
100438ca:	f000 fa3e 	bl	10043d4a <memchr>
100438ce:	1c75      	adds	r5, r6, #1
100438d0:	2800      	cmp	r0, #0
100438d2:	d11f      	bne.n	10043914 <_svfiprintf_r+0xe8>
100438d4:	6822      	ldr	r2, [r4, #0]
100438d6:	06d3      	lsls	r3, r2, #27
100438d8:	d504      	bpl.n	100438e4 <_svfiprintf_r+0xb8>
100438da:	2353      	movs	r3, #83	@ 0x53
100438dc:	a904      	add	r1, sp, #16
100438de:	185b      	adds	r3, r3, r1
100438e0:	2120      	movs	r1, #32
100438e2:	7019      	strb	r1, [r3, #0]
100438e4:	0713      	lsls	r3, r2, #28
100438e6:	d504      	bpl.n	100438f2 <_svfiprintf_r+0xc6>
100438e8:	2353      	movs	r3, #83	@ 0x53
100438ea:	a904      	add	r1, sp, #16
100438ec:	185b      	adds	r3, r3, r1
100438ee:	212b      	movs	r1, #43	@ 0x2b
100438f0:	7019      	strb	r1, [r3, #0]
100438f2:	7833      	ldrb	r3, [r6, #0]
100438f4:	2b2a      	cmp	r3, #42	@ 0x2a
100438f6:	d016      	beq.n	10043926 <_svfiprintf_r+0xfa>
100438f8:	0035      	movs	r5, r6
100438fa:	2100      	movs	r1, #0
100438fc:	200a      	movs	r0, #10
100438fe:	68e3      	ldr	r3, [r4, #12]
10043900:	782a      	ldrb	r2, [r5, #0]
10043902:	1c6e      	adds	r6, r5, #1
10043904:	3a30      	subs	r2, #48	@ 0x30
10043906:	2a09      	cmp	r2, #9
10043908:	d950      	bls.n	100439ac <_svfiprintf_r+0x180>
1004390a:	2900      	cmp	r1, #0
1004390c:	d111      	bne.n	10043932 <_svfiprintf_r+0x106>
1004390e:	e017      	b.n	10043940 <_svfiprintf_r+0x114>
10043910:	3501      	adds	r5, #1
10043912:	e7af      	b.n	10043874 <_svfiprintf_r+0x48>
10043914:	9b05      	ldr	r3, [sp, #20]
10043916:	6822      	ldr	r2, [r4, #0]
10043918:	1ac0      	subs	r0, r0, r3
1004391a:	2301      	movs	r3, #1
1004391c:	4083      	lsls	r3, r0
1004391e:	4313      	orrs	r3, r2
10043920:	002e      	movs	r6, r5
10043922:	6023      	str	r3, [r4, #0]
10043924:	e7cc      	b.n	100438c0 <_svfiprintf_r+0x94>
10043926:	9b07      	ldr	r3, [sp, #28]
10043928:	1d19      	adds	r1, r3, #4
1004392a:	681b      	ldr	r3, [r3, #0]
1004392c:	9107      	str	r1, [sp, #28]
1004392e:	2b00      	cmp	r3, #0
10043930:	db01      	blt.n	10043936 <_svfiprintf_r+0x10a>
10043932:	930b      	str	r3, [sp, #44]	@ 0x2c
10043934:	e004      	b.n	10043940 <_svfiprintf_r+0x114>
10043936:	425b      	negs	r3, r3
10043938:	60e3      	str	r3, [r4, #12]
1004393a:	2302      	movs	r3, #2
1004393c:	4313      	orrs	r3, r2
1004393e:	6023      	str	r3, [r4, #0]
10043940:	782b      	ldrb	r3, [r5, #0]
10043942:	2b2e      	cmp	r3, #46	@ 0x2e
10043944:	d10c      	bne.n	10043960 <_svfiprintf_r+0x134>
10043946:	786b      	ldrb	r3, [r5, #1]
10043948:	2b2a      	cmp	r3, #42	@ 0x2a
1004394a:	d134      	bne.n	100439b6 <_svfiprintf_r+0x18a>
1004394c:	9b07      	ldr	r3, [sp, #28]
1004394e:	3502      	adds	r5, #2
10043950:	1d1a      	adds	r2, r3, #4
10043952:	681b      	ldr	r3, [r3, #0]
10043954:	9207      	str	r2, [sp, #28]
10043956:	2b00      	cmp	r3, #0
10043958:	da01      	bge.n	1004395e <_svfiprintf_r+0x132>
1004395a:	2301      	movs	r3, #1
1004395c:	425b      	negs	r3, r3
1004395e:	9309      	str	r3, [sp, #36]	@ 0x24
10043960:	4e2d      	ldr	r6, [pc, #180]	@ (10043a18 <_svfiprintf_r+0x1ec>)
10043962:	2203      	movs	r2, #3
10043964:	0030      	movs	r0, r6
10043966:	7829      	ldrb	r1, [r5, #0]
10043968:	f000 f9ef 	bl	10043d4a <memchr>
1004396c:	2800      	cmp	r0, #0
1004396e:	d006      	beq.n	1004397e <_svfiprintf_r+0x152>
10043970:	2340      	movs	r3, #64	@ 0x40
10043972:	1b80      	subs	r0, r0, r6
10043974:	4083      	lsls	r3, r0
10043976:	6822      	ldr	r2, [r4, #0]
10043978:	3501      	adds	r5, #1
1004397a:	4313      	orrs	r3, r2
1004397c:	6023      	str	r3, [r4, #0]
1004397e:	7829      	ldrb	r1, [r5, #0]
10043980:	2206      	movs	r2, #6
10043982:	4826      	ldr	r0, [pc, #152]	@ (10043a1c <_svfiprintf_r+0x1f0>)
10043984:	1c6e      	adds	r6, r5, #1
10043986:	7621      	strb	r1, [r4, #24]
10043988:	f000 f9df 	bl	10043d4a <memchr>
1004398c:	2800      	cmp	r0, #0
1004398e:	d038      	beq.n	10043a02 <_svfiprintf_r+0x1d6>
10043990:	4b23      	ldr	r3, [pc, #140]	@ (10043a20 <_svfiprintf_r+0x1f4>)
10043992:	2b00      	cmp	r3, #0
10043994:	d122      	bne.n	100439dc <_svfiprintf_r+0x1b0>
10043996:	2207      	movs	r2, #7
10043998:	9b07      	ldr	r3, [sp, #28]
1004399a:	3307      	adds	r3, #7
1004399c:	4393      	bics	r3, r2
1004399e:	3308      	adds	r3, #8
100439a0:	9307      	str	r3, [sp, #28]
100439a2:	6963      	ldr	r3, [r4, #20]
100439a4:	9a04      	ldr	r2, [sp, #16]
100439a6:	189b      	adds	r3, r3, r2
100439a8:	6163      	str	r3, [r4, #20]
100439aa:	e762      	b.n	10043872 <_svfiprintf_r+0x46>
100439ac:	4343      	muls	r3, r0
100439ae:	0035      	movs	r5, r6
100439b0:	2101      	movs	r1, #1
100439b2:	189b      	adds	r3, r3, r2
100439b4:	e7a4      	b.n	10043900 <_svfiprintf_r+0xd4>
100439b6:	2300      	movs	r3, #0
100439b8:	200a      	movs	r0, #10
100439ba:	0019      	movs	r1, r3
100439bc:	3501      	adds	r5, #1
100439be:	6063      	str	r3, [r4, #4]
100439c0:	782a      	ldrb	r2, [r5, #0]
100439c2:	1c6e      	adds	r6, r5, #1
100439c4:	3a30      	subs	r2, #48	@ 0x30
100439c6:	2a09      	cmp	r2, #9
100439c8:	d903      	bls.n	100439d2 <_svfiprintf_r+0x1a6>
100439ca:	2b00      	cmp	r3, #0
100439cc:	d0c8      	beq.n	10043960 <_svfiprintf_r+0x134>
100439ce:	9109      	str	r1, [sp, #36]	@ 0x24
100439d0:	e7c6      	b.n	10043960 <_svfiprintf_r+0x134>
100439d2:	4341      	muls	r1, r0
100439d4:	0035      	movs	r5, r6
100439d6:	2301      	movs	r3, #1
100439d8:	1889      	adds	r1, r1, r2
100439da:	e7f1      	b.n	100439c0 <_svfiprintf_r+0x194>
100439dc:	aa07      	add	r2, sp, #28
100439de:	9200      	str	r2, [sp, #0]
100439e0:	0021      	movs	r1, r4
100439e2:	003a      	movs	r2, r7
100439e4:	4b0f      	ldr	r3, [pc, #60]	@ (10043a24 <_svfiprintf_r+0x1f8>)
100439e6:	9803      	ldr	r0, [sp, #12]
100439e8:	e000      	b.n	100439ec <_svfiprintf_r+0x1c0>
100439ea:	bf00      	nop
100439ec:	9004      	str	r0, [sp, #16]
100439ee:	9b04      	ldr	r3, [sp, #16]
100439f0:	3301      	adds	r3, #1
100439f2:	d1d6      	bne.n	100439a2 <_svfiprintf_r+0x176>
100439f4:	89bb      	ldrh	r3, [r7, #12]
100439f6:	980d      	ldr	r0, [sp, #52]	@ 0x34
100439f8:	065b      	lsls	r3, r3, #25
100439fa:	d500      	bpl.n	100439fe <_svfiprintf_r+0x1d2>
100439fc:	e72c      	b.n	10043858 <_svfiprintf_r+0x2c>
100439fe:	b021      	add	sp, #132	@ 0x84
10043a00:	bdf0      	pop	{r4, r5, r6, r7, pc}
10043a02:	aa07      	add	r2, sp, #28
10043a04:	9200      	str	r2, [sp, #0]
10043a06:	0021      	movs	r1, r4
10043a08:	003a      	movs	r2, r7
10043a0a:	4b06      	ldr	r3, [pc, #24]	@ (10043a24 <_svfiprintf_r+0x1f8>)
10043a0c:	9803      	ldr	r0, [sp, #12]
10043a0e:	f000 f87b 	bl	10043b08 <_printf_i>
10043a12:	e7eb      	b.n	100439ec <_svfiprintf_r+0x1c0>
10043a14:	10043ef6 	.word	0x10043ef6
10043a18:	10043efc 	.word	0x10043efc
10043a1c:	10043f00 	.word	0x10043f00
10043a20:	00000000 	.word	0x00000000
10043a24:	1004376d 	.word	0x1004376d

10043a28 <_printf_common>:
10043a28:	b5f7      	push	{r0, r1, r2, r4, r5, r6, r7, lr}
10043a2a:	0016      	movs	r6, r2
10043a2c:	9301      	str	r3, [sp, #4]
10043a2e:	688a      	ldr	r2, [r1, #8]
10043a30:	690b      	ldr	r3, [r1, #16]
10043a32:	000c      	movs	r4, r1
10043a34:	9000      	str	r0, [sp, #0]
10043a36:	4293      	cmp	r3, r2
10043a38:	da00      	bge.n	10043a3c <_printf_common+0x14>
10043a3a:	0013      	movs	r3, r2
10043a3c:	0022      	movs	r2, r4
10043a3e:	6033      	str	r3, [r6, #0]
10043a40:	3243      	adds	r2, #67	@ 0x43
10043a42:	7812      	ldrb	r2, [r2, #0]
10043a44:	2a00      	cmp	r2, #0
10043a46:	d001      	beq.n	10043a4c <_printf_common+0x24>
10043a48:	3301      	adds	r3, #1
10043a4a:	6033      	str	r3, [r6, #0]
10043a4c:	6823      	ldr	r3, [r4, #0]
10043a4e:	069b      	lsls	r3, r3, #26
10043a50:	d502      	bpl.n	10043a58 <_printf_common+0x30>
10043a52:	6833      	ldr	r3, [r6, #0]
10043a54:	3302      	adds	r3, #2
10043a56:	6033      	str	r3, [r6, #0]
10043a58:	6822      	ldr	r2, [r4, #0]
10043a5a:	2306      	movs	r3, #6
10043a5c:	0015      	movs	r5, r2
10043a5e:	401d      	ands	r5, r3
10043a60:	421a      	tst	r2, r3
10043a62:	d027      	beq.n	10043ab4 <_printf_common+0x8c>
10043a64:	0023      	movs	r3, r4
10043a66:	3343      	adds	r3, #67	@ 0x43
10043a68:	781b      	ldrb	r3, [r3, #0]
10043a6a:	1e5a      	subs	r2, r3, #1
10043a6c:	4193      	sbcs	r3, r2
10043a6e:	6822      	ldr	r2, [r4, #0]
10043a70:	0692      	lsls	r2, r2, #26
10043a72:	d430      	bmi.n	10043ad6 <_printf_common+0xae>
10043a74:	0022      	movs	r2, r4
10043a76:	9901      	ldr	r1, [sp, #4]
10043a78:	9800      	ldr	r0, [sp, #0]
10043a7a:	9d08      	ldr	r5, [sp, #32]
10043a7c:	3243      	adds	r2, #67	@ 0x43
10043a7e:	47a8      	blx	r5
10043a80:	3001      	adds	r0, #1
10043a82:	d025      	beq.n	10043ad0 <_printf_common+0xa8>
10043a84:	2206      	movs	r2, #6
10043a86:	6823      	ldr	r3, [r4, #0]
10043a88:	2500      	movs	r5, #0
10043a8a:	4013      	ands	r3, r2
10043a8c:	2b04      	cmp	r3, #4
10043a8e:	d105      	bne.n	10043a9c <_printf_common+0x74>
10043a90:	6833      	ldr	r3, [r6, #0]
10043a92:	68e5      	ldr	r5, [r4, #12]
10043a94:	1aed      	subs	r5, r5, r3
10043a96:	43eb      	mvns	r3, r5
10043a98:	17db      	asrs	r3, r3, #31
10043a9a:	401d      	ands	r5, r3
10043a9c:	68a3      	ldr	r3, [r4, #8]
10043a9e:	6922      	ldr	r2, [r4, #16]
10043aa0:	4293      	cmp	r3, r2
10043aa2:	dd01      	ble.n	10043aa8 <_printf_common+0x80>
10043aa4:	1a9b      	subs	r3, r3, r2
10043aa6:	18ed      	adds	r5, r5, r3
10043aa8:	2600      	movs	r6, #0
10043aaa:	42b5      	cmp	r5, r6
10043aac:	d120      	bne.n	10043af0 <_printf_common+0xc8>
10043aae:	2000      	movs	r0, #0
10043ab0:	e010      	b.n	10043ad4 <_printf_common+0xac>
10043ab2:	3501      	adds	r5, #1
10043ab4:	68e3      	ldr	r3, [r4, #12]
10043ab6:	6832      	ldr	r2, [r6, #0]
10043ab8:	1a9b      	subs	r3, r3, r2
10043aba:	42ab      	cmp	r3, r5
10043abc:	ddd2      	ble.n	10043a64 <_printf_common+0x3c>
10043abe:	0022      	movs	r2, r4
10043ac0:	2301      	movs	r3, #1
10043ac2:	9901      	ldr	r1, [sp, #4]
10043ac4:	9800      	ldr	r0, [sp, #0]
10043ac6:	9f08      	ldr	r7, [sp, #32]
10043ac8:	3219      	adds	r2, #25
10043aca:	47b8      	blx	r7
10043acc:	3001      	adds	r0, #1
10043ace:	d1f0      	bne.n	10043ab2 <_printf_common+0x8a>
10043ad0:	2001      	movs	r0, #1
10043ad2:	4240      	negs	r0, r0
10043ad4:	bdfe      	pop	{r1, r2, r3, r4, r5, r6, r7, pc}
10043ad6:	2030      	movs	r0, #48	@ 0x30
10043ad8:	18e1      	adds	r1, r4, r3
10043ada:	3143      	adds	r1, #67	@ 0x43
10043adc:	7008      	strb	r0, [r1, #0]
10043ade:	0021      	movs	r1, r4
10043ae0:	1c5a      	adds	r2, r3, #1
10043ae2:	3145      	adds	r1, #69	@ 0x45
10043ae4:	7809      	ldrb	r1, [r1, #0]
10043ae6:	18a2      	adds	r2, r4, r2
10043ae8:	3243      	adds	r2, #67	@ 0x43
10043aea:	3302      	adds	r3, #2
10043aec:	7011      	strb	r1, [r2, #0]
10043aee:	e7c1      	b.n	10043a74 <_printf_common+0x4c>
10043af0:	0022      	movs	r2, r4
10043af2:	2301      	movs	r3, #1
10043af4:	9901      	ldr	r1, [sp, #4]
10043af6:	9800      	ldr	r0, [sp, #0]
10043af8:	9f08      	ldr	r7, [sp, #32]
10043afa:	321a      	adds	r2, #26
10043afc:	47b8      	blx	r7
10043afe:	3001      	adds	r0, #1
10043b00:	d0e6      	beq.n	10043ad0 <_printf_common+0xa8>
10043b02:	3601      	adds	r6, #1
10043b04:	e7d1      	b.n	10043aaa <_printf_common+0x82>
	...

10043b08 <_printf_i>:
10043b08:	b5f0      	push	{r4, r5, r6, r7, lr}
10043b0a:	b08b      	sub	sp, #44	@ 0x2c
10043b0c:	9206      	str	r2, [sp, #24]
10043b0e:	000a      	movs	r2, r1
10043b10:	3243      	adds	r2, #67	@ 0x43
10043b12:	9307      	str	r3, [sp, #28]
10043b14:	9005      	str	r0, [sp, #20]
10043b16:	9203      	str	r2, [sp, #12]
10043b18:	7e0a      	ldrb	r2, [r1, #24]
10043b1a:	000c      	movs	r4, r1
10043b1c:	9b10      	ldr	r3, [sp, #64]	@ 0x40
10043b1e:	2a78      	cmp	r2, #120	@ 0x78
10043b20:	d809      	bhi.n	10043b36 <_printf_i+0x2e>
10043b22:	2a62      	cmp	r2, #98	@ 0x62
10043b24:	d80b      	bhi.n	10043b3e <_printf_i+0x36>
10043b26:	2a00      	cmp	r2, #0
10043b28:	d100      	bne.n	10043b2c <_printf_i+0x24>
10043b2a:	e0bc      	b.n	10043ca6 <_printf_i+0x19e>
10043b2c:	497b      	ldr	r1, [pc, #492]	@ (10043d1c <_printf_i+0x214>)
10043b2e:	9104      	str	r1, [sp, #16]
10043b30:	2a58      	cmp	r2, #88	@ 0x58
10043b32:	d100      	bne.n	10043b36 <_printf_i+0x2e>
10043b34:	e090      	b.n	10043c58 <_printf_i+0x150>
10043b36:	0025      	movs	r5, r4
10043b38:	3542      	adds	r5, #66	@ 0x42
10043b3a:	702a      	strb	r2, [r5, #0]
10043b3c:	e022      	b.n	10043b84 <_printf_i+0x7c>
10043b3e:	0010      	movs	r0, r2
10043b40:	3863      	subs	r0, #99	@ 0x63
10043b42:	2815      	cmp	r0, #21
10043b44:	d8f7      	bhi.n	10043b36 <_printf_i+0x2e>
10043b46:	f7fc faef 	bl	10040128 <__gnu_thumb1_case_shi>
10043b4a:	0016      	.short	0x0016
10043b4c:	fff6001f 	.word	0xfff6001f
10043b50:	fff6fff6 	.word	0xfff6fff6
10043b54:	001ffff6 	.word	0x001ffff6
10043b58:	fff6fff6 	.word	0xfff6fff6
10043b5c:	fff6fff6 	.word	0xfff6fff6
10043b60:	003600a1 	.word	0x003600a1
10043b64:	fff60080 	.word	0xfff60080
10043b68:	00b2fff6 	.word	0x00b2fff6
10043b6c:	0036fff6 	.word	0x0036fff6
10043b70:	fff6fff6 	.word	0xfff6fff6
10043b74:	0084      	.short	0x0084
10043b76:	0025      	movs	r5, r4
10043b78:	681a      	ldr	r2, [r3, #0]
10043b7a:	3542      	adds	r5, #66	@ 0x42
10043b7c:	1d11      	adds	r1, r2, #4
10043b7e:	6019      	str	r1, [r3, #0]
10043b80:	6813      	ldr	r3, [r2, #0]
10043b82:	702b      	strb	r3, [r5, #0]
10043b84:	2301      	movs	r3, #1
10043b86:	e0a0      	b.n	10043cca <_printf_i+0x1c2>
10043b88:	6818      	ldr	r0, [r3, #0]
10043b8a:	6809      	ldr	r1, [r1, #0]
10043b8c:	1d02      	adds	r2, r0, #4
10043b8e:	060d      	lsls	r5, r1, #24
10043b90:	d50b      	bpl.n	10043baa <_printf_i+0xa2>
10043b92:	6806      	ldr	r6, [r0, #0]
10043b94:	601a      	str	r2, [r3, #0]
10043b96:	2e00      	cmp	r6, #0
10043b98:	da03      	bge.n	10043ba2 <_printf_i+0x9a>
10043b9a:	232d      	movs	r3, #45	@ 0x2d
10043b9c:	9a03      	ldr	r2, [sp, #12]
10043b9e:	4276      	negs	r6, r6
10043ba0:	7013      	strb	r3, [r2, #0]
10043ba2:	4b5e      	ldr	r3, [pc, #376]	@ (10043d1c <_printf_i+0x214>)
10043ba4:	270a      	movs	r7, #10
10043ba6:	9304      	str	r3, [sp, #16]
10043ba8:	e018      	b.n	10043bdc <_printf_i+0xd4>
10043baa:	6806      	ldr	r6, [r0, #0]
10043bac:	601a      	str	r2, [r3, #0]
10043bae:	0649      	lsls	r1, r1, #25
10043bb0:	d5f1      	bpl.n	10043b96 <_printf_i+0x8e>
10043bb2:	b236      	sxth	r6, r6
10043bb4:	e7ef      	b.n	10043b96 <_printf_i+0x8e>
10043bb6:	6808      	ldr	r0, [r1, #0]
10043bb8:	6819      	ldr	r1, [r3, #0]
10043bba:	c940      	ldmia	r1!, {r6}
10043bbc:	0605      	lsls	r5, r0, #24
10043bbe:	d402      	bmi.n	10043bc6 <_printf_i+0xbe>
10043bc0:	0640      	lsls	r0, r0, #25
10043bc2:	d500      	bpl.n	10043bc6 <_printf_i+0xbe>
10043bc4:	b2b6      	uxth	r6, r6
10043bc6:	6019      	str	r1, [r3, #0]
10043bc8:	4b54      	ldr	r3, [pc, #336]	@ (10043d1c <_printf_i+0x214>)
10043bca:	270a      	movs	r7, #10
10043bcc:	9304      	str	r3, [sp, #16]
10043bce:	2a6f      	cmp	r2, #111	@ 0x6f
10043bd0:	d100      	bne.n	10043bd4 <_printf_i+0xcc>
10043bd2:	3f02      	subs	r7, #2
10043bd4:	0023      	movs	r3, r4
10043bd6:	2200      	movs	r2, #0
10043bd8:	3343      	adds	r3, #67	@ 0x43
10043bda:	701a      	strb	r2, [r3, #0]
10043bdc:	6863      	ldr	r3, [r4, #4]
10043bde:	60a3      	str	r3, [r4, #8]
10043be0:	2b00      	cmp	r3, #0
10043be2:	db03      	blt.n	10043bec <_printf_i+0xe4>
10043be4:	2104      	movs	r1, #4
10043be6:	6822      	ldr	r2, [r4, #0]
10043be8:	438a      	bics	r2, r1
10043bea:	6022      	str	r2, [r4, #0]
10043bec:	2e00      	cmp	r6, #0
10043bee:	d102      	bne.n	10043bf6 <_printf_i+0xee>
10043bf0:	9d03      	ldr	r5, [sp, #12]
10043bf2:	2b00      	cmp	r3, #0
10043bf4:	d00c      	beq.n	10043c10 <_printf_i+0x108>
10043bf6:	9d03      	ldr	r5, [sp, #12]
10043bf8:	0030      	movs	r0, r6
10043bfa:	0039      	movs	r1, r7
10043bfc:	f7fc fb24 	bl	10040248 <__aeabi_uidivmod>
10043c00:	9b04      	ldr	r3, [sp, #16]
10043c02:	3d01      	subs	r5, #1
10043c04:	5c5b      	ldrb	r3, [r3, r1]
10043c06:	702b      	strb	r3, [r5, #0]
10043c08:	0033      	movs	r3, r6
10043c0a:	0006      	movs	r6, r0
10043c0c:	429f      	cmp	r7, r3
10043c0e:	d9f3      	bls.n	10043bf8 <_printf_i+0xf0>
10043c10:	2f08      	cmp	r7, #8
10043c12:	d109      	bne.n	10043c28 <_printf_i+0x120>
10043c14:	6823      	ldr	r3, [r4, #0]
10043c16:	07db      	lsls	r3, r3, #31
10043c18:	d506      	bpl.n	10043c28 <_printf_i+0x120>
10043c1a:	6862      	ldr	r2, [r4, #4]
10043c1c:	6923      	ldr	r3, [r4, #16]
10043c1e:	429a      	cmp	r2, r3
10043c20:	dc02      	bgt.n	10043c28 <_printf_i+0x120>
10043c22:	2330      	movs	r3, #48	@ 0x30
10043c24:	3d01      	subs	r5, #1
10043c26:	702b      	strb	r3, [r5, #0]
10043c28:	9b03      	ldr	r3, [sp, #12]
10043c2a:	1b5b      	subs	r3, r3, r5
10043c2c:	6123      	str	r3, [r4, #16]
10043c2e:	9b07      	ldr	r3, [sp, #28]
10043c30:	0021      	movs	r1, r4
10043c32:	9300      	str	r3, [sp, #0]
10043c34:	9805      	ldr	r0, [sp, #20]
10043c36:	9b06      	ldr	r3, [sp, #24]
10043c38:	aa09      	add	r2, sp, #36	@ 0x24
10043c3a:	f7ff fef5 	bl	10043a28 <_printf_common>
10043c3e:	3001      	adds	r0, #1
10043c40:	d148      	bne.n	10043cd4 <_printf_i+0x1cc>
10043c42:	2001      	movs	r0, #1
10043c44:	4240      	negs	r0, r0
10043c46:	b00b      	add	sp, #44	@ 0x2c
10043c48:	bdf0      	pop	{r4, r5, r6, r7, pc}
10043c4a:	2220      	movs	r2, #32
10043c4c:	6809      	ldr	r1, [r1, #0]
10043c4e:	430a      	orrs	r2, r1
10043c50:	6022      	str	r2, [r4, #0]
10043c52:	2278      	movs	r2, #120	@ 0x78
10043c54:	4932      	ldr	r1, [pc, #200]	@ (10043d20 <_printf_i+0x218>)
10043c56:	9104      	str	r1, [sp, #16]
10043c58:	0021      	movs	r1, r4
10043c5a:	3145      	adds	r1, #69	@ 0x45
10043c5c:	700a      	strb	r2, [r1, #0]
10043c5e:	6819      	ldr	r1, [r3, #0]
10043c60:	6822      	ldr	r2, [r4, #0]
10043c62:	c940      	ldmia	r1!, {r6}
10043c64:	0610      	lsls	r0, r2, #24
10043c66:	d402      	bmi.n	10043c6e <_printf_i+0x166>
10043c68:	0650      	lsls	r0, r2, #25
10043c6a:	d500      	bpl.n	10043c6e <_printf_i+0x166>
10043c6c:	b2b6      	uxth	r6, r6
10043c6e:	6019      	str	r1, [r3, #0]
10043c70:	07d3      	lsls	r3, r2, #31
10043c72:	d502      	bpl.n	10043c7a <_printf_i+0x172>
10043c74:	2320      	movs	r3, #32
10043c76:	4313      	orrs	r3, r2
10043c78:	6023      	str	r3, [r4, #0]
10043c7a:	2e00      	cmp	r6, #0
10043c7c:	d001      	beq.n	10043c82 <_printf_i+0x17a>
10043c7e:	2710      	movs	r7, #16
10043c80:	e7a8      	b.n	10043bd4 <_printf_i+0xcc>
10043c82:	2220      	movs	r2, #32
10043c84:	6823      	ldr	r3, [r4, #0]
10043c86:	4393      	bics	r3, r2
10043c88:	6023      	str	r3, [r4, #0]
10043c8a:	e7f8      	b.n	10043c7e <_printf_i+0x176>
10043c8c:	681a      	ldr	r2, [r3, #0]
10043c8e:	680d      	ldr	r5, [r1, #0]
10043c90:	1d10      	adds	r0, r2, #4
10043c92:	6949      	ldr	r1, [r1, #20]
10043c94:	6018      	str	r0, [r3, #0]
10043c96:	6813      	ldr	r3, [r2, #0]
10043c98:	062e      	lsls	r6, r5, #24
10043c9a:	d501      	bpl.n	10043ca0 <_printf_i+0x198>
10043c9c:	6019      	str	r1, [r3, #0]
10043c9e:	e002      	b.n	10043ca6 <_printf_i+0x19e>
10043ca0:	066d      	lsls	r5, r5, #25
10043ca2:	d5fb      	bpl.n	10043c9c <_printf_i+0x194>
10043ca4:	8019      	strh	r1, [r3, #0]
10043ca6:	2300      	movs	r3, #0
10043ca8:	9d03      	ldr	r5, [sp, #12]
10043caa:	6123      	str	r3, [r4, #16]
10043cac:	e7bf      	b.n	10043c2e <_printf_i+0x126>
10043cae:	681a      	ldr	r2, [r3, #0]
10043cb0:	1d11      	adds	r1, r2, #4
10043cb2:	6019      	str	r1, [r3, #0]
10043cb4:	6815      	ldr	r5, [r2, #0]
10043cb6:	2100      	movs	r1, #0
10043cb8:	0028      	movs	r0, r5
10043cba:	6862      	ldr	r2, [r4, #4]
10043cbc:	f000 f845 	bl	10043d4a <memchr>
10043cc0:	2800      	cmp	r0, #0
10043cc2:	d001      	beq.n	10043cc8 <_printf_i+0x1c0>
10043cc4:	1b40      	subs	r0, r0, r5
10043cc6:	6060      	str	r0, [r4, #4]
10043cc8:	6863      	ldr	r3, [r4, #4]
10043cca:	6123      	str	r3, [r4, #16]
10043ccc:	2300      	movs	r3, #0
10043cce:	9a03      	ldr	r2, [sp, #12]
10043cd0:	7013      	strb	r3, [r2, #0]
10043cd2:	e7ac      	b.n	10043c2e <_printf_i+0x126>
10043cd4:	002a      	movs	r2, r5
10043cd6:	6923      	ldr	r3, [r4, #16]
10043cd8:	9906      	ldr	r1, [sp, #24]
10043cda:	9805      	ldr	r0, [sp, #20]
10043cdc:	9d07      	ldr	r5, [sp, #28]
10043cde:	47a8      	blx	r5
10043ce0:	3001      	adds	r0, #1
10043ce2:	d0ae      	beq.n	10043c42 <_printf_i+0x13a>
10043ce4:	6823      	ldr	r3, [r4, #0]
10043ce6:	079b      	lsls	r3, r3, #30
10043ce8:	d415      	bmi.n	10043d16 <_printf_i+0x20e>
10043cea:	9b09      	ldr	r3, [sp, #36]	@ 0x24
10043cec:	68e0      	ldr	r0, [r4, #12]
10043cee:	4298      	cmp	r0, r3
10043cf0:	daa9      	bge.n	10043c46 <_printf_i+0x13e>
10043cf2:	0018      	movs	r0, r3
10043cf4:	e7a7      	b.n	10043c46 <_printf_i+0x13e>
10043cf6:	0022      	movs	r2, r4
10043cf8:	2301      	movs	r3, #1
10043cfa:	9906      	ldr	r1, [sp, #24]
10043cfc:	9805      	ldr	r0, [sp, #20]
10043cfe:	9e07      	ldr	r6, [sp, #28]
10043d00:	3219      	adds	r2, #25
10043d02:	47b0      	blx	r6
10043d04:	3001      	adds	r0, #1
10043d06:	d09c      	beq.n	10043c42 <_printf_i+0x13a>
10043d08:	3501      	adds	r5, #1
10043d0a:	68e3      	ldr	r3, [r4, #12]
10043d0c:	9a09      	ldr	r2, [sp, #36]	@ 0x24
10043d0e:	1a9b      	subs	r3, r3, r2
10043d10:	42ab      	cmp	r3, r5
10043d12:	dcf0      	bgt.n	10043cf6 <_printf_i+0x1ee>
10043d14:	e7e9      	b.n	10043cea <_printf_i+0x1e2>
10043d16:	2500      	movs	r5, #0
10043d18:	e7f7      	b.n	10043d0a <_printf_i+0x202>
10043d1a:	46c0      	nop			@ (mov r8, r8)
10043d1c:	10043f07 	.word	0x10043f07
10043d20:	10043f18 	.word	0x10043f18

10043d24 <memmove>:
10043d24:	b510      	push	{r4, lr}
10043d26:	4288      	cmp	r0, r1
10043d28:	d806      	bhi.n	10043d38 <memmove+0x14>
10043d2a:	2300      	movs	r3, #0
10043d2c:	429a      	cmp	r2, r3
10043d2e:	d008      	beq.n	10043d42 <memmove+0x1e>
10043d30:	5ccc      	ldrb	r4, [r1, r3]
10043d32:	54c4      	strb	r4, [r0, r3]
10043d34:	3301      	adds	r3, #1
10043d36:	e7f9      	b.n	10043d2c <memmove+0x8>
10043d38:	188b      	adds	r3, r1, r2
10043d3a:	4298      	cmp	r0, r3
10043d3c:	d2f5      	bcs.n	10043d2a <memmove+0x6>
10043d3e:	3a01      	subs	r2, #1
10043d40:	d200      	bcs.n	10043d44 <memmove+0x20>
10043d42:	bd10      	pop	{r4, pc}
10043d44:	5c8b      	ldrb	r3, [r1, r2]
10043d46:	5483      	strb	r3, [r0, r2]
10043d48:	e7f9      	b.n	10043d3e <memmove+0x1a>

10043d4a <memchr>:
10043d4a:	b2c9      	uxtb	r1, r1
10043d4c:	1882      	adds	r2, r0, r2
10043d4e:	4290      	cmp	r0, r2
10043d50:	d101      	bne.n	10043d56 <memchr+0xc>
10043d52:	2000      	movs	r0, #0
10043d54:	4770      	bx	lr
10043d56:	7803      	ldrb	r3, [r0, #0]
10043d58:	428b      	cmp	r3, r1
10043d5a:	d0fb      	beq.n	10043d54 <memchr+0xa>
10043d5c:	3001      	adds	r0, #1
10043d5e:	e7f6      	b.n	10043d4e <memchr+0x4>

10043d60 <_realloc_r>:
10043d60:	b5f7      	push	{r0, r1, r2, r4, r5, r6, r7, lr}
10043d62:	0006      	movs	r6, r0
10043d64:	000c      	movs	r4, r1
10043d66:	0015      	movs	r5, r2
10043d68:	2900      	cmp	r1, #0
10043d6a:	d105      	bne.n	10043d78 <_realloc_r+0x18>
10043d6c:	0011      	movs	r1, r2
10043d6e:	f7ff fbd7 	bl	10043520 <_malloc_r>
10043d72:	0004      	movs	r4, r0
10043d74:	0020      	movs	r0, r4
10043d76:	bdfe      	pop	{r1, r2, r3, r4, r5, r6, r7, pc}
10043d78:	2a00      	cmp	r2, #0
10043d7a:	d103      	bne.n	10043d84 <_realloc_r+0x24>
10043d7c:	f7ff fcac 	bl	100436d8 <_free_r>
10043d80:	2400      	movs	r4, #0
10043d82:	e7f7      	b.n	10043d74 <_realloc_r+0x14>
10043d84:	f000 f81b 	bl	10043dbe <_malloc_usable_size_r>
10043d88:	0007      	movs	r7, r0
10043d8a:	4285      	cmp	r5, r0
10043d8c:	d802      	bhi.n	10043d94 <_realloc_r+0x34>
10043d8e:	0843      	lsrs	r3, r0, #1
10043d90:	42ab      	cmp	r3, r5
10043d92:	d3ef      	bcc.n	10043d74 <_realloc_r+0x14>
10043d94:	0029      	movs	r1, r5
10043d96:	0030      	movs	r0, r6
10043d98:	f7ff fbc2 	bl	10043520 <_malloc_r>
10043d9c:	9001      	str	r0, [sp, #4]
10043d9e:	2800      	cmp	r0, #0
10043da0:	d0ee      	beq.n	10043d80 <_realloc_r+0x20>
10043da2:	002a      	movs	r2, r5
10043da4:	42bd      	cmp	r5, r7
10043da6:	d900      	bls.n	10043daa <_realloc_r+0x4a>
10043da8:	003a      	movs	r2, r7
10043daa:	0021      	movs	r1, r4
10043dac:	9801      	ldr	r0, [sp, #4]
10043dae:	f7ff fc89 	bl	100436c4 <memcpy>
10043db2:	0021      	movs	r1, r4
10043db4:	0030      	movs	r0, r6
10043db6:	f7ff fc8f 	bl	100436d8 <_free_r>
10043dba:	9c01      	ldr	r4, [sp, #4]
10043dbc:	e7da      	b.n	10043d74 <_realloc_r+0x14>

10043dbe <_malloc_usable_size_r>:
10043dbe:	1f0b      	subs	r3, r1, #4
10043dc0:	681b      	ldr	r3, [r3, #0]
10043dc2:	1f18      	subs	r0, r3, #4
10043dc4:	2b00      	cmp	r3, #0
10043dc6:	da01      	bge.n	10043dcc <_malloc_usable_size_r+0xe>
10043dc8:	580b      	ldr	r3, [r1, r0]
10043dca:	18c0      	adds	r0, r0, r3
10043dcc:	4770      	bx	lr
	...

Disassembly of section .init:

10043dd0 <_init>:
10043dd0:	b5f8      	push	{r3, r4, r5, r6, r7, lr}
10043dd2:	46c0      	nop			@ (mov r8, r8)

Disassembly of section .fini:

10043dd4 <_fini>:
10043dd4:	b5f8      	push	{r3, r4, r5, r6, r7, lr}
10043dd6:	46c0      	nop			@ (mov r8, r8)
